Archive member included to satisfy reference by file (symbol)

d:/projects/saturn/yaul/opt/x-tools/sh2eb-elf/bin/../lib/gcc/sh2eb-elf/8.3.0\libgcc.a(_ashiftrt.o)
                              sh2doom-1.10/p_map.o (___ashiftrt_r4_6)
d:/projects/saturn/yaul/opt/x-tools/sh2eb-elf/bin/../lib/gcc/sh2eb-elf/8.3.0\libgcc.a(_ashiftrt_n.o)
                              sh2doom-1.10/r_main.o (___ashrsi3)
d:/projects/saturn/yaul/opt/x-tools/sh2eb-elf/bin/../lib/gcc/sh2eb-elf/8.3.0\libgcc.a(_ashiftlt.o)
                              sh2doom-1.10/p_mobj.o (___ashlsi3_r0)
d:/projects/saturn/yaul/opt/x-tools/sh2eb-elf/bin/../lib/gcc/sh2eb-elf/8.3.0\libgcc.a(_movmem.o)
                              sh2doom-1.10/d_net.o (___movmem)
d:/projects/saturn/yaul/opt/x-tools/sh2eb-elf/bin/../lib/gcc/sh2eb-elf/8.3.0\libgcc.a(_sdivsi3.o)
                              sh2doom-1.10/am_map.o (___sdivsi3)
d:/projects/saturn/yaul/opt/x-tools/sh2eb-elf/bin/../lib/gcc/sh2eb-elf/8.3.0\libgcc.a(_udivsi3.o)
                              sh2doom-1.10/r_segs.o (___udivsi3)
d:/projects/saturn/yaul/opt/x-tools/sh2eb-elf/bin/../lib/gcc/sh2eb-elf/8.3.0\libgcc.a(_mul_df.o)
                              sh2doom-1.10/m_fixed.o (___muldf3)
d:/projects/saturn/yaul/opt/x-tools/sh2eb-elf/bin/../lib/gcc/sh2eb-elf/8.3.0\libgcc.a(_div_df.o)
                              sh2doom-1.10/m_fixed.o (___divdf3)
d:/projects/saturn/yaul/opt/x-tools/sh2eb-elf/bin/../lib/gcc/sh2eb-elf/8.3.0\libgcc.a(_ge_df.o)
                              sh2doom-1.10/m_fixed.o (___gedf2)
d:/projects/saturn/yaul/opt/x-tools/sh2eb-elf/bin/../lib/gcc/sh2eb-elf/8.3.0\libgcc.a(_lt_df.o)
                              sh2doom-1.10/m_fixed.o (___ltdf2)
d:/projects/saturn/yaul/opt/x-tools/sh2eb-elf/bin/../lib/gcc/sh2eb-elf/8.3.0\libgcc.a(_si_to_df.o)
                              sh2doom-1.10/m_fixed.o (___floatsidf)
d:/projects/saturn/yaul/opt/x-tools/sh2eb-elf/bin/../lib/gcc/sh2eb-elf/8.3.0\libgcc.a(_df_to_si.o)
                              sh2doom-1.10/m_fixed.o (___fixdfsi)
d:/projects/saturn/yaul/opt/x-tools/sh2eb-elf/bin/../lib/gcc/sh2eb-elf/8.3.0\libgcc.a(_thenan_df.o)
                              d:/projects/saturn/yaul/opt/x-tools/sh2eb-elf/bin/../lib/gcc/sh2eb-elf/8.3.0\libgcc.a(_mul_df.o) (___thenan_df)
d:/projects/saturn/yaul/opt/x-tools/sh2eb-elf/bin/../lib/gcc/sh2eb-elf/8.3.0\libgcc.a(_lshrdi3.o)
                              d:/projects/saturn/yaul/opt/x-tools/sh2eb-elf/bin/../lib/gcc/sh2eb-elf/8.3.0\libgcc.a(_df_to_si.o) (___lshrdi3)
d:/projects/saturn/yaul/opt/x-tools/sh2eb-elf/bin/../lib/gcc/sh2eb-elf/8.3.0\libgcc.a(_ashldi3.o)
                              d:/projects/saturn/yaul/opt/x-tools/sh2eb-elf/bin/../lib/gcc/sh2eb-elf/8.3.0\libgcc.a(_si_to_df.o) (___ashldi3)
d:/projects/saturn/yaul/opt/x-tools/sh2eb-elf/bin/../lib/gcc/sh2eb-elf/8.3.0\libgcc.a(_clzsi2.o)
                              d:/projects/saturn/yaul/opt/x-tools/sh2eb-elf/bin/../lib/gcc/sh2eb-elf/8.3.0\libgcc.a(_si_to_df.o) (___clzsi2)
d:/projects/saturn/yaul/opt/x-tools/sh2eb-elf/bin/../lib/gcc/sh2eb-elf/8.3.0\libgcc.a(_pack_df.o)
                              d:/projects/saturn/yaul/opt/x-tools/sh2eb-elf/bin/../lib/gcc/sh2eb-elf/8.3.0\libgcc.a(_mul_df.o) (___pack_d)
d:/projects/saturn/yaul/opt/x-tools/sh2eb-elf/bin/../lib/gcc/sh2eb-elf/8.3.0\libgcc.a(_unpack_df.o)
                              d:/projects/saturn/yaul/opt/x-tools/sh2eb-elf/bin/../lib/gcc/sh2eb-elf/8.3.0\libgcc.a(_mul_df.o) (___unpack_d)
d:/projects/saturn/yaul/opt/x-tools/sh2eb-elf/bin/../lib/gcc/sh2eb-elf/8.3.0\libgcc.a(_fpcmp_parts_df.o)
                              d:/projects/saturn/yaul/opt/x-tools/sh2eb-elf/bin/../lib/gcc/sh2eb-elf/8.3.0\libgcc.a(_ge_df.o) (___fpcmp_parts_d)
d:/projects/saturn/yaul/opt/x-tools/sh2eb-elf/bin/../lib/gcc/sh2eb-elf/8.3.0\libgcc.a(_lshiftrt.o)
                              d:/projects/saturn/yaul/opt/x-tools/sh2eb-elf/bin/../lib/gcc/sh2eb-elf/8.3.0\libgcc.a(_lshrdi3.o) (___lshrsi3_r0)
d:/projects/saturn/yaul/opt/x-tools/sh2eb-elf/bin/../lib/gcc/sh2eb-elf/8.3.0\libgcc.a(_clz.o)
                              d:/projects/saturn/yaul/opt/x-tools/sh2eb-elf/bin/../lib/gcc/sh2eb-elf/8.3.0\libgcc.a(_clzsi2.o) (___clz_tab)
d:/projects/saturn/yaul/opt/x-tools/sh2eb-elf/bin/../lib/gcc/sh2eb-elf/8.3.0/../../../../sh2eb-elf/lib\libyaul.a(internal.o)
                              d:/projects/saturn/yaul/opt/x-tools/sh2eb-elf/bin/../lib/gcc/sh2eb-elf/8.3.0/../../../../sh2eb-elf/lib/init.o (__internal_master_state)
d:/projects/saturn/yaul/opt/x-tools/sh2eb-elf/bin/../lib/gcc/sh2eb-elf/8.3.0/../../../../sh2eb-elf/lib\libyaul.a(dbgio.o)
                              d:/projects/saturn/yaul/opt/x-tools/sh2eb-elf/bin/../lib/gcc/sh2eb-elf/8.3.0/../../../../sh2eb-elf/lib/init.o (_dbgio_init)
d:/projects/saturn/yaul/opt/x-tools/sh2eb-elf/bin/../lib/gcc/sh2eb-elf/8.3.0/../../../../sh2eb-elf/lib\libyaul.a(null.o)
                              d:/projects/saturn/yaul/opt/x-tools/sh2eb-elf/bin/../lib/gcc/sh2eb-elf/8.3.0/../../../../sh2eb-elf/lib\libyaul.a(dbgio.o) (__internal_dev_ops_null)
d:/projects/saturn/yaul/opt/x-tools/sh2eb-elf/bin/../lib/gcc/sh2eb-elf/8.3.0/../../../../sh2eb-elf/lib\libyaul.a(vdp2.o)
                              d:/projects/saturn/yaul/opt/x-tools/sh2eb-elf/bin/../lib/gcc/sh2eb-elf/8.3.0/../../../../sh2eb-elf/lib\libyaul.a(dbgio.o) (__internal_dev_ops_vdp2_simple)
d:/projects/saturn/yaul/opt/x-tools/sh2eb-elf/bin/../lib/gcc/sh2eb-elf/8.3.0/../../../../sh2eb-elf/lib\libyaul.a(usb-cart.o)
                              d:/projects/saturn/yaul/opt/x-tools/sh2eb-elf/bin/../lib/gcc/sh2eb-elf/8.3.0/../../../../sh2eb-elf/lib\libyaul.a(dbgio.o) (__internal_dev_ops_usb_cart)
d:/projects/saturn/yaul/opt/x-tools/sh2eb-elf/bin/../lib/gcc/sh2eb-elf/8.3.0/../../../../sh2eb-elf/lib\libyaul.a(cons.o)
                              d:/projects/saturn/yaul/opt/x-tools/sh2eb-elf/bin/../lib/gcc/sh2eb-elf/8.3.0/../../../../sh2eb-elf/lib\libyaul.a(vdp2.o) (_cons_init)
d:/projects/saturn/yaul/opt/x-tools/sh2eb-elf/bin/../lib/gcc/sh2eb-elf/8.3.0/../../../../sh2eb-elf/lib\libyaul.a(dma-queue.o)
                              d:/projects/saturn/yaul/opt/x-tools/sh2eb-elf/bin/../lib/gcc/sh2eb-elf/8.3.0/../../../../sh2eb-elf/lib/init.o (_dma_queue_init)
d:/projects/saturn/yaul/opt/x-tools/sh2eb-elf/bin/../lib/gcc/sh2eb-elf/8.3.0/../../../../sh2eb-elf/lib\libyaul.a(tlsf.o)
                              d:/projects/saturn/yaul/opt/x-tools/sh2eb-elf/bin/../lib/gcc/sh2eb-elf/8.3.0/../../../../sh2eb-elf/lib/init.o (_tlsf_create_with_pool)
d:/projects/saturn/yaul/opt/x-tools/sh2eb-elf/bin/../lib/gcc/sh2eb-elf/8.3.0/../../../../sh2eb-elf/lib\libyaul.a(ctype.o)
                              sh2doom-1.10/f_finale.o (_toupper)
d:/projects/saturn/yaul/opt/x-tools/sh2eb-elf/bin/../lib/gcc/sh2eb-elf/8.3.0/../../../../sh2eb-elf/lib\libyaul.a(memcpy.o)
                              sh2doom-1.10/d_main.o (_memcpy)
d:/projects/saturn/yaul/opt/x-tools/sh2eb-elf/bin/../lib/gcc/sh2eb-elf/8.3.0/../../../../sh2eb-elf/lib\libyaul.a(memset.o)
                              sh2doom-1.10/am_map.o (_memset)
d:/projects/saturn/yaul/opt/x-tools/sh2eb-elf/bin/../lib/gcc/sh2eb-elf/8.3.0/../../../../sh2eb-elf/lib\libyaul.a(strcasestr.o)
                              sh2doom-1.10/w_wad.o (_strcasestr)
d:/projects/saturn/yaul/opt/x-tools/sh2eb-elf/bin/../lib/gcc/sh2eb-elf/8.3.0/../../../../sh2eb-elf/lib\libyaul.a(strcat.o)
                              sh2doom-1.10/g_game.o (_strcat)
d:/projects/saturn/yaul/opt/x-tools/sh2eb-elf/bin/../lib/gcc/sh2eb-elf/8.3.0/../../../../sh2eb-elf/lib\libyaul.a(strcmp.o)
                              sh2doom-1.10/g_game.o (_strcmp)
d:/projects/saturn/yaul/opt/x-tools/sh2eb-elf/bin/../lib/gcc/sh2eb-elf/8.3.0/../../../../sh2eb-elf/lib\libyaul.a(strcpy.o)
                              sh2doom-1.10/d_main.o (_strcpy)
d:/projects/saturn/yaul/opt/x-tools/sh2eb-elf/bin/../lib/gcc/sh2eb-elf/8.3.0/../../../../sh2eb-elf/lib\libyaul.a(strlen.o)
                              sh2doom-1.10/d_main.o (_strlen)
d:/projects/saturn/yaul/opt/x-tools/sh2eb-elf/bin/../lib/gcc/sh2eb-elf/8.3.0/../../../../sh2eb-elf/lib\libyaul.a(strncasecmp.o)
                              sh2doom-1.10/r_data.o (_strncasecmp)
d:/projects/saturn/yaul/opt/x-tools/sh2eb-elf/bin/../lib/gcc/sh2eb-elf/8.3.0/../../../../sh2eb-elf/lib\libyaul.a(strncmp.o)
                              sh2doom-1.10/w_wad.o (_strncmp)
d:/projects/saturn/yaul/opt/x-tools/sh2eb-elf/bin/../lib/gcc/sh2eb-elf/8.3.0/../../../../sh2eb-elf/lib\libyaul.a(strncpy.o)
                              sh2doom-1.10/m_menu.o (_strncpy)
d:/projects/saturn/yaul/opt/x-tools/sh2eb-elf/bin/../lib/gcc/sh2eb-elf/8.3.0/../../../../sh2eb-elf/lib\libyaul.a(snprintf.o)
                              sh2doom-1.10/am_map.o (_sprintf)
d:/projects/saturn/yaul/opt/x-tools/sh2eb-elf/bin/../lib/gcc/sh2eb-elf/8.3.0/../../../../sh2eb-elf/lib\libyaul.a(abort.o)
                              sh2doom-1.10/p_spec.o (_abort)
d:/projects/saturn/yaul/opt/x-tools/sh2eb-elf/bin/../lib/gcc/sh2eb-elf/8.3.0/../../../../sh2eb-elf/lib\libyaul.a(abs.o)
                              sh2doom-1.10/m_fixed.o (_abs)
d:/projects/saturn/yaul/opt/x-tools/sh2eb-elf/bin/../lib/gcc/sh2eb-elf/8.3.0/../../../../sh2eb-elf/lib\libyaul.a(assert.o)
                              d:/projects/saturn/yaul/opt/x-tools/sh2eb-elf/bin/../lib/gcc/sh2eb-elf/8.3.0/../../../../sh2eb-elf/lib/c++-support.o (__assert)
d:/projects/saturn/yaul/opt/x-tools/sh2eb-elf/bin/../lib/gcc/sh2eb-elf/8.3.0/../../../../sh2eb-elf/lib\libyaul.a(free.o)
                              d:/projects/saturn/yaul/opt/x-tools/sh2eb-elf/bin/../lib/gcc/sh2eb-elf/8.3.0/../../../../sh2eb-elf/lib/c++-support.o (_free)
d:/projects/saturn/yaul/opt/x-tools/sh2eb-elf/bin/../lib/gcc/sh2eb-elf/8.3.0/../../../../sh2eb-elf/lib\libyaul.a(malloc.o)
                              d:/projects/saturn/yaul/opt/x-tools/sh2eb-elf/bin/../lib/gcc/sh2eb-elf/8.3.0/../../../../sh2eb-elf/lib/c++-support.o (_malloc)
d:/projects/saturn/yaul/opt/x-tools/sh2eb-elf/bin/../lib/gcc/sh2eb-elf/8.3.0/../../../../sh2eb-elf/lib\libyaul.a(dram-cart.o)
                              d:/projects/saturn/yaul/opt/x-tools/sh2eb-elf/bin/../lib/gcc/sh2eb-elf/8.3.0/../../../../sh2eb-elf/lib/init.o (_dram_cart_init)
d:/projects/saturn/yaul/opt/x-tools/sh2eb-elf/bin/../lib/gcc/sh2eb-elf/8.3.0/../../../../sh2eb-elf/lib\libyaul.a(vdp_init.o)
                              d:/projects/saturn/yaul/opt/x-tools/sh2eb-elf/bin/../lib/gcc/sh2eb-elf/8.3.0/../../../../sh2eb-elf/lib/init.o (_vdp_init)
d:/projects/saturn/yaul/opt/x-tools/sh2eb-elf/bin/../lib/gcc/sh2eb-elf/8.3.0/../../../../sh2eb-elf/lib\libyaul.a(vdp_sync.o)
                              d:/projects/saturn/yaul/opt/x-tools/sh2eb-elf/bin/../lib/gcc/sh2eb-elf/8.3.0/../../../../sh2eb-elf/lib\libyaul.a(vdp_init.o) (_vdp_sync_init)
d:/projects/saturn/yaul/opt/x-tools/sh2eb-elf/bin/../lib/gcc/sh2eb-elf/8.3.0/../../../../sh2eb-elf/lib\libyaul.a(vdp-internal.o)
                              d:/projects/saturn/yaul/opt/x-tools/sh2eb-elf/bin/../lib/gcc/sh2eb-elf/8.3.0/../../../../sh2eb-elf/lib\libyaul.a(vdp_init.o) (__internal_state_vdp2)
d:/projects/saturn/yaul/opt/x-tools/sh2eb-elf/bin/../lib/gcc/sh2eb-elf/8.3.0/../../../../sh2eb-elf/lib\libyaul.a(vdp1_env.o)
                              d:/projects/saturn/yaul/opt/x-tools/sh2eb-elf/bin/../lib/gcc/sh2eb-elf/8.3.0/../../../../sh2eb-elf/lib\libyaul.a(vdp_init.o) (_vdp1_env_default_set)
d:/projects/saturn/yaul/opt/x-tools/sh2eb-elf/bin/../lib/gcc/sh2eb-elf/8.3.0/../../../../sh2eb-elf/lib\libyaul.a(vdp1_vram.o)
                              d:/projects/saturn/yaul/opt/x-tools/sh2eb-elf/bin/../lib/gcc/sh2eb-elf/8.3.0/../../../../sh2eb-elf/lib\libyaul.a(vdp_init.o) (_vdp1_vram_partitions_set)
d:/projects/saturn/yaul/opt/x-tools/sh2eb-elf/bin/../lib/gcc/sh2eb-elf/8.3.0/../../../../sh2eb-elf/lib\libyaul.a(vdp2_cram.o)
                              d:/projects/saturn/yaul/opt/x-tools/sh2eb-elf/bin/../lib/gcc/sh2eb-elf/8.3.0/../../../../sh2eb-elf/lib\libyaul.a(vdp_init.o) (_vdp2_cram_mode_set)
d:/projects/saturn/yaul/opt/x-tools/sh2eb-elf/bin/../lib/gcc/sh2eb-elf/8.3.0/../../../../sh2eb-elf/lib\libyaul.a(vdp2_scrn.o)
                              d:/projects/saturn/yaul/opt/x-tools/sh2eb-elf/bin/../lib/gcc/sh2eb-elf/8.3.0/../../../../sh2eb-elf/lib\libyaul.a(vdp2.o) (_vdp2_scrn_cell_format_set)
d:/projects/saturn/yaul/opt/x-tools/sh2eb-elf/bin/../lib/gcc/sh2eb-elf/8.3.0/../../../../sh2eb-elf/lib\libyaul.a(vdp2_scrn_back_screen.o)
                              d:/projects/saturn/yaul/opt/x-tools/sh2eb-elf/bin/../lib/gcc/sh2eb-elf/8.3.0/../../../../sh2eb-elf/lib\libyaul.a(vdp_init.o) (_vdp2_scrn_back_screen_color_set)
d:/projects/saturn/yaul/opt/x-tools/sh2eb-elf/bin/../lib/gcc/sh2eb-elf/8.3.0/../../../../sh2eb-elf/lib\libyaul.a(vdp2_scrn_display.o)
                              d:/projects/saturn/yaul/opt/x-tools/sh2eb-elf/bin/../lib/gcc/sh2eb-elf/8.3.0/../../../../sh2eb-elf/lib\libyaul.a(vdp2.o) (_vdp2_scrn_display_set)
d:/projects/saturn/yaul/opt/x-tools/sh2eb-elf/bin/../lib/gcc/sh2eb-elf/8.3.0/../../../../sh2eb-elf/lib\libyaul.a(vdp2_scrn_priority.o)
                              d:/projects/saturn/yaul/opt/x-tools/sh2eb-elf/bin/../lib/gcc/sh2eb-elf/8.3.0/../../../../sh2eb-elf/lib\libyaul.a(vdp2.o) (_vdp2_scrn_priority_set)
d:/projects/saturn/yaul/opt/x-tools/sh2eb-elf/bin/../lib/gcc/sh2eb-elf/8.3.0/../../../../sh2eb-elf/lib\libyaul.a(vdp2_scrn_reduction.o)
                              d:/projects/saturn/yaul/opt/x-tools/sh2eb-elf/bin/../lib/gcc/sh2eb-elf/8.3.0/../../../../sh2eb-elf/lib\libyaul.a(vdp_init.o) (_vdp2_scrn_reduction_x_set)
d:/projects/saturn/yaul/opt/x-tools/sh2eb-elf/bin/../lib/gcc/sh2eb-elf/8.3.0/../../../../sh2eb-elf/lib\libyaul.a(vdp2_scrn_scroll.o)
                              d:/projects/saturn/yaul/opt/x-tools/sh2eb-elf/bin/../lib/gcc/sh2eb-elf/8.3.0/../../../../sh2eb-elf/lib\libyaul.a(vdp2.o) (_vdp2_scrn_scroll_x_set)
d:/projects/saturn/yaul/opt/x-tools/sh2eb-elf/bin/../lib/gcc/sh2eb-elf/8.3.0/../../../../sh2eb-elf/lib\libyaul.a(vdp2_tvmd.o)
                              d:/projects/saturn/yaul/opt/x-tools/sh2eb-elf/bin/../lib/gcc/sh2eb-elf/8.3.0/../../../../sh2eb-elf/lib\libyaul.a(vdp_init.o) (_vdp2_tvmd_display_clear)
d:/projects/saturn/yaul/opt/x-tools/sh2eb-elf/bin/../lib/gcc/sh2eb-elf/8.3.0/../../../../sh2eb-elf/lib\libyaul.a(vdp2_vram.o)
                              d:/projects/saturn/yaul/opt/x-tools/sh2eb-elf/bin/../lib/gcc/sh2eb-elf/8.3.0/../../../../sh2eb-elf/lib\libyaul.a(vdp_init.o) (_vdp2_vram_control_set)
d:/projects/saturn/yaul/opt/x-tools/sh2eb-elf/bin/../lib/gcc/sh2eb-elf/8.3.0/../../../../sh2eb-elf/lib\libyaul.a(cpu_cache.o)
                              d:/projects/saturn/yaul/opt/x-tools/sh2eb-elf/bin/../lib/gcc/sh2eb-elf/8.3.0/../../../../sh2eb-elf/lib/init.o (_cpu_cache_purge)
d:/projects/saturn/yaul/opt/x-tools/sh2eb-elf/bin/../lib/gcc/sh2eb-elf/8.3.0/../../../../sh2eb-elf/lib\libyaul.a(cpu_dmac.o)
                              d:/projects/saturn/yaul/opt/x-tools/sh2eb-elf/bin/../lib/gcc/sh2eb-elf/8.3.0/../../../../sh2eb-elf/lib\libyaul.a(vdp2.o) (_cpu_dmac_channel_config_set)
d:/projects/saturn/yaul/opt/x-tools/sh2eb-elf/bin/../lib/gcc/sh2eb-elf/8.3.0/../../../../sh2eb-elf/lib\libyaul.a(cpu_dual.o)
                              d:/projects/saturn/yaul/opt/x-tools/sh2eb-elf/bin/../lib/gcc/sh2eb-elf/8.3.0/../../../../sh2eb-elf/lib\libyaul.a(cpu_dmac.o) (_cpu_dual_executor_get)
d:/projects/saturn/yaul/opt/x-tools/sh2eb-elf/bin/../lib/gcc/sh2eb-elf/8.3.0/../../../../sh2eb-elf/lib\libyaul.a(cpu_frt.o)
                              d:/projects/saturn/yaul/opt/x-tools/sh2eb-elf/bin/../lib/gcc/sh2eb-elf/8.3.0/../../../../sh2eb-elf/lib\libyaul.a(cpu_dual.o) (_cpu_frt_init)
d:/projects/saturn/yaul/opt/x-tools/sh2eb-elf/bin/../lib/gcc/sh2eb-elf/8.3.0/../../../../sh2eb-elf/lib\libyaul.a(cpu_init.o)
                              d:/projects/saturn/yaul/opt/x-tools/sh2eb-elf/bin/../lib/gcc/sh2eb-elf/8.3.0/../../../../sh2eb-elf/lib/init.o (_cpu_init)
d:/projects/saturn/yaul/opt/x-tools/sh2eb-elf/bin/../lib/gcc/sh2eb-elf/8.3.0/../../../../sh2eb-elf/lib\libyaul.a(cpu_wdt.o)
                              d:/projects/saturn/yaul/opt/x-tools/sh2eb-elf/bin/../lib/gcc/sh2eb-elf/8.3.0/../../../../sh2eb-elf/lib\libyaul.a(cpu_dual.o) (_cpu_wdt_init)
d:/projects/saturn/yaul/opt/x-tools/sh2eb-elf/bin/../lib/gcc/sh2eb-elf/8.3.0/../../../../sh2eb-elf/lib\libyaul.a(smpc_init.o)
                              d:/projects/saturn/yaul/opt/x-tools/sh2eb-elf/bin/../lib/gcc/sh2eb-elf/8.3.0/../../../../sh2eb-elf/lib/init.o (_smpc_init)
d:/projects/saturn/yaul/opt/x-tools/sh2eb-elf/bin/../lib/gcc/sh2eb-elf/8.3.0/../../../../sh2eb-elf/lib\libyaul.a(smpc_peripheral_init.o)
                              d:/projects/saturn/yaul/opt/x-tools/sh2eb-elf/bin/../lib/gcc/sh2eb-elf/8.3.0/../../../../sh2eb-elf/lib/init.o (_smpc_peripheral_init)
d:/projects/saturn/yaul/opt/x-tools/sh2eb-elf/bin/../lib/gcc/sh2eb-elf/8.3.0/../../../../sh2eb-elf/lib\libyaul.a(scu_init.o)
                              d:/projects/saturn/yaul/opt/x-tools/sh2eb-elf/bin/../lib/gcc/sh2eb-elf/8.3.0/../../../../sh2eb-elf/lib/init.o (_scu_init)
d:/projects/saturn/yaul/opt/x-tools/sh2eb-elf/bin/../lib/gcc/sh2eb-elf/8.3.0/../../../../sh2eb-elf/lib\libyaul.a(scu_dma.o)
                              d:/projects/saturn/yaul/opt/x-tools/sh2eb-elf/bin/../lib/gcc/sh2eb-elf/8.3.0/../../../../sh2eb-elf/lib\libyaul.a(scu_init.o) (_scu_dma_init)
d:/projects/saturn/yaul/opt/x-tools/sh2eb-elf/bin/../lib/gcc/sh2eb-elf/8.3.0/../../../../sh2eb-elf/lib\libyaul.a(scu_dsp.o)
                              d:/projects/saturn/yaul/opt/x-tools/sh2eb-elf/bin/../lib/gcc/sh2eb-elf/8.3.0/../../../../sh2eb-elf/lib\libyaul.a(scu_init.o) (_scu_dsp_init)
d:/projects/saturn/yaul/opt/x-tools/sh2eb-elf/bin/../lib/gcc/sh2eb-elf/8.3.0/../../../../sh2eb-elf/lib\libyaul.a(scu_timer.o)
                              d:/projects/saturn/yaul/opt/x-tools/sh2eb-elf/bin/../lib/gcc/sh2eb-elf/8.3.0/../../../../sh2eb-elf/lib\libyaul.a(scu_init.o) (_scu_timer_init)
d:/projects/saturn/yaul/opt/x-tools/sh2eb-elf/bin/../lib/gcc/sh2eb-elf/8.3.0/../../../../sh2eb-elf/lib\libyaul.a(internal.o)
                              d:/projects/saturn/yaul/opt/x-tools/sh2eb-elf/bin/../lib/gcc/sh2eb-elf/8.3.0/../../../../sh2eb-elf/lib\libyaul.a(vdp2.o) (__internal_malloc)
d:/projects/saturn/yaul/opt/x-tools/sh2eb-elf/bin/../lib/gcc/sh2eb-elf/8.3.0/../../../../sh2eb-elf/lib\libyaul.a(internal_reset.o)
                              d:/projects/saturn/yaul/opt/x-tools/sh2eb-elf/bin/../lib/gcc/sh2eb-elf/8.3.0/../../../../sh2eb-elf/lib\libyaul.a(assert.o) (__internal_reset)
d:/projects/saturn/yaul/opt/x-tools/sh2eb-elf/bin/../lib/gcc/sh2eb-elf/8.3.0/../../../../sh2eb-elf/lib\libyaul.a(callback-list.o)
                              d:/projects/saturn/yaul/opt/x-tools/sh2eb-elf/bin/../lib/gcc/sh2eb-elf/8.3.0/../../../../sh2eb-elf/lib\libyaul.a(vdp_sync.o) (_callback_list_callback_remove)
d:/projects/saturn/yaul/opt/x-tools/sh2eb-elf/bin/../lib/gcc/sh2eb-elf/8.3.0/../../../../sh2eb-elf/lib\libyaul.a(memb.o)
                              d:/projects/saturn/yaul/opt/x-tools/sh2eb-elf/bin/../lib/gcc/sh2eb-elf/8.3.0/../../../../sh2eb-elf/lib\libyaul.a(smpc_peripheral_init.o) (_memb_init)
d:/projects/saturn/yaul/opt/x-tools/sh2eb-elf/bin/../lib/gcc/sh2eb-elf/8.3.0/../../../../sh2eb-elf/lib\libyaul.a(stpcpy.o)
                              d:/projects/saturn/yaul/opt/x-tools/sh2eb-elf/bin/../lib/gcc/sh2eb-elf/8.3.0/../../../../sh2eb-elf/lib\libyaul.a(strcpy.o) (_stpcpy)
d:/projects/saturn/yaul/opt/x-tools/sh2eb-elf/bin/../lib/gcc/sh2eb-elf/8.3.0/../../../../sh2eb-elf/lib\libyaul.a(stpncpy.o)
                              d:/projects/saturn/yaul/opt/x-tools/sh2eb-elf/bin/../lib/gcc/sh2eb-elf/8.3.0/../../../../sh2eb-elf/lib\libyaul.a(strncpy.o) (_stpncpy)
d:/projects/saturn/yaul/opt/x-tools/sh2eb-elf/bin/../lib/gcc/sh2eb-elf/8.3.0/../../../../sh2eb-elf/lib\libyaul.a(strnlen.o)
                              d:/projects/saturn/yaul/opt/x-tools/sh2eb-elf/bin/../lib/gcc/sh2eb-elf/8.3.0/../../../../sh2eb-elf/lib\libyaul.a(snprintf.o) (_strnlen)
d:/projects/saturn/yaul/opt/x-tools/sh2eb-elf/bin/../lib/gcc/sh2eb-elf/8.3.0/../../../../sh2eb-elf/lib\libyaul.a(vdp2_sprite.o)
                              d:/projects/saturn/yaul/opt/x-tools/sh2eb-elf/bin/../lib/gcc/sh2eb-elf/8.3.0/../../../../sh2eb-elf/lib\libyaul.a(internal_reset.o) (_vdp2_sprite_priority_set)
d:/projects/saturn/yaul/opt/x-tools/sh2eb-elf/bin/../lib/gcc/sh2eb-elf/8.3.0/../../../../sh2eb-elf/lib\libyaul.a(cpu_divu.o)
                              d:/projects/saturn/yaul/opt/x-tools/sh2eb-elf/bin/../lib/gcc/sh2eb-elf/8.3.0/../../../../sh2eb-elf/lib\libyaul.a(cpu_dual.o) (_cpu_divu_init)
d:/projects/saturn/yaul/opt/x-tools/sh2eb-elf/bin/../lib/gcc/sh2eb-elf/8.3.0/../../../../sh2eb-elf/lib\libyaul.a(memchr.o)
                              d:/projects/saturn/yaul/opt/x-tools/sh2eb-elf/bin/../lib/gcc/sh2eb-elf/8.3.0/../../../../sh2eb-elf/lib\libyaul.a(strnlen.o) (_memchr)
d:/projects/saturn/yaul/opt/x-tools/sh2eb-elf/bin/../lib/gcc/sh2eb-elf/8.3.0\libgcc.a(_ffssi2.o)
                              d:/projects/saturn/yaul/opt/x-tools/sh2eb-elf/bin/../lib/gcc/sh2eb-elf/8.3.0/../../../../sh2eb-elf/lib\libyaul.a(tlsf.o) (___ffssi2)

Allocating common symbols
Common symbol       size              file

load_e              0x4               sh2doom-1.10/m_menu.o
key_down            0x4               sh2doom-1.10/g_game.o
switchlist          0x190             sh2doom-1.10/p_switch.o
viewz               0x4               sh2doom-1.10/r_main.o
gamekeydown         0x400             sh2doom-1.10/g_game.o
crushchange         0x4               sh2doom-1.10/p_map.o
deathmatch_p        0x4               sh2doom-1.10/p_setup.o
skullAnimCounter    0x2               sh2doom-1.10/m_menu.o
intercepts          0x600             sh2doom-1.10/p_maputl.o
_default_params     0x4               d:/projects/saturn/yaul/opt/x-tools/sh2eb-elf/bin/../lib/gcc/sh2eb-elf/8.3.0/../../../../sh2eb-elf/lib\libyaul.a(null.o)
rw_midtexturemid    0x4               sh2doom-1.10/r_segs.o
cachedxstep         0x320             sh2doom-1.10/r_plane.o
inited              0x4               sh2doom-1.10/i_video.o
sprites             0x4               sh2doom-1.10/r_things.o
events              0x400             sh2doom-1.10/d_main.o
lastopening         0x4               sh2doom-1.10/r_plane.o
blockmaplump        0x4               sh2doom-1.10/p_setup.o
worldtop            0x4               sh2doom-1.10/r_segs.o
channelleftvol_lookup
                    0x20              sh2doom-1.10/i_sound.o
maketic             0x4               sh2doom-1.10/d_net.o
planezlight         0x4               sh2doom-1.10/r_plane.o
ds_x1               0x4               sh2doom-1.10/r_draw.o
rejectmatrix        0x4               sh2doom-1.10/p_setup.o
texturewidthmask    0x4               sh2doom-1.10/r_data.o
savebuffer          0x4               sh2doom-1.10/g_game.o
startskill          0x4               sh2doom-1.10/d_main.o
netgame             0x4               sh2doom-1.10/g_game.o
bulletslope         0x4               sh2doom-1.10/p_pspr.o
joyarray            0x14              sh2doom-1.10/g_game.o
lumpinfo            0x4               sh2doom-1.10/w_wad.o
viletryy            0x4               sh2doom-1.10/p_enemy.o
bmapwidth           0x4               sh2doom-1.10/p_setup.o
key_fire            0x4               sh2doom-1.10/g_game.o
messageLastMenuActive
                    0x4               sh2doom-1.10/m_menu.o
mousey              0x4               sh2doom-1.10/g_game.o
finalestage         0x4               sh2doom-1.10/f_finale.o
dc_translation      0x4               sh2doom-1.10/r_draw.o
markceiling         0x4               sh2doom-1.10/r_segs.o
dc_yh               0x4               sh2doom-1.10/r_draw.o
messageRoutine      0x4               sh2doom-1.10/m_menu.o
linecount           0x4               sh2doom-1.10/r_main.o
fuzzcolfunc         0x4               sh2doom-1.10/r_main.o
numspritelumps      0x4               sh2doom-1.10/r_data.o
shiftxform          0x4               sh2doom-1.10/hu_stuff.o
eventhead           0x4               sh2doom-1.10/d_main.o
visplanes           0x14c00           sh2doom-1.10/r_plane.o
zlight              0x2000            sh2doom-1.10/r_main.o
devparm             0x4               sh2doom-1.10/d_main.o
remoteresend        0x20              sh2doom-1.10/d_net.o
planeheight         0x4               sh2doom-1.10/r_plane.o
reboundpacket       0x4               sh2doom-1.10/d_net.o
paused              0x4               sh2doom-1.10/g_game.o
shootz              0x4               sh2doom-1.10/p_map.o
secretexit          0x4               sh2doom-1.10/g_game.o
channelids          0x20              sh2doom-1.10/i_sound.o
mouseSensitivity    0x4               sh2doom-1.10/m_menu.o
extralight          0x4               sh2doom-1.10/r_main.o
dclicktime          0x4               sh2doom-1.10/g_game.o
tmflags             0x4               sh2doom-1.10/p_map.o
demoname            0x20              sh2doom-1.10/g_game.o
topstep             0x4               sh2doom-1.10/r_segs.o
lastspritelump      0x4               sh2doom-1.10/r_data.o
caststate           0x4               sh2doom-1.10/f_finale.o
negonearray         0x280             sh2doom-1.10/r_things.o
spanstart           0x320             sh2doom-1.10/r_plane.o
rw_toptexturemid    0x4               sh2doom-1.10/r_segs.o
players             0x460             sh2doom-1.10/g_game.o
flattranslation     0x4               sh2doom-1.10/r_data.o
braintargeton       0x4               sh2doom-1.10/p_enemy.o
singledemo          0x4               sh2doom-1.10/g_game.o
ds_yfrac            0x4               sh2doom-1.10/r_draw.o
main_e              0x4               sh2doom-1.10/m_menu.o
numChannels         0x4               sh2doom-1.10/s_sound.o
spryscale           0x4               sh2doom-1.10/r_things.o
numsubsectors       0x4               sh2doom-1.10/p_setup.o
linespeciallist     0x100             sh2doom-1.10/p_spec.o
dirtybox            0x10              sh2doom-1.10/v_video.o
intercept_p         0x4               sh2doom-1.10/p_maputl.o
spanfunc            0x4               sh2doom-1.10/r_main.o
gamemap             0x4               sh2doom-1.10/g_game.o
pixlow              0x4               sh2doom-1.10/r_segs.o
title               0x80              sh2doom-1.10/d_main.o
rw_stopx            0x4               sh2doom-1.10/r_segs.o
test                0x4               sh2doom-1.10/p_mobj.o
reloadlump          0x4               sh2doom-1.10/w_wad.o
viewy               0x4               sh2doom-1.10/r_main.o
netcmds             0x180             sh2doom-1.10/d_net.o
castdeath           0x4               sh2doom-1.10/f_finale.o
frametics           0x10              sh2doom-1.10/d_net.o
key_straferight     0x4               sh2doom-1.10/g_game.o
joybspeed           0x4               sh2doom-1.10/g_game.o
dc_x                0x4               sh2doom-1.10/r_draw.o
skyflatnum          0x4               sh2doom-1.10/r_sky.o
projection          0x4               sh2doom-1.10/r_main.o
lastvisplane        0x4               sh2doom-1.10/r_plane.o
cachedheight        0x320             sh2doom-1.10/r_plane.o
worldbottom         0x4               sh2doom-1.10/r_segs.o
_internal_master_state
                    0x8               d:/projects/saturn/yaul/opt/x-tools/sh2eb-elf/bin/../lib/gcc/sh2eb-elf/8.3.0/../../../../sh2eb-elf/lib\libyaul.a(internal.o)
floorplane          0x4               sh2doom-1.10/r_plane.o
saveStringEnter     0x4               sh2doom-1.10/m_menu.o
secondslideline     0x4               sh2doom-1.10/p_map.o
pagetic             0x4               sh2doom-1.10/d_main.o
floorfunc           0x4               sh2doom-1.10/r_plane.o
menuactive          0x4               sh2doom-1.10/m_menu.o
bodyque             0x80              sh2doom-1.10/g_game.o
dclicks2            0x4               sh2doom-1.10/g_game.o
dc_texturemid       0x4               sh2doom-1.10/r_draw.o
gametic             0x4               sh2doom-1.10/g_game.o
loopcount           0x4               sh2doom-1.10/r_main.o
respawnparm         0x4               sh2doom-1.10/d_main.o
ds_ystep            0x4               sh2doom-1.10/r_draw.o
netbuffer           0x4               sh2doom-1.10/d_net.o
setsizeneeded       0x4               sh2doom-1.10/r_main.o
mceilingclip        0x4               sh2doom-1.10/r_things.o
oldnettics          0x4               sh2doom-1.10/d_net.o
anims               0x280             sh2doom-1.10/p_spec.o
tmx                 0x4               sh2doom-1.10/p_map.o
mousearray          0x10              sh2doom-1.10/g_game.o
t2x                 0x4               sh2doom-1.10/p_sight.o
castonmelee         0x4               sh2doom-1.10/f_finale.o
scalelightfixed     0xc0              sh2doom-1.10/r_main.o
fixedcolormap       0x4               sh2doom-1.10/r_main.o
joyxmove            0x4               sh2doom-1.10/g_game.o
newvissprite        0x4               sh2doom-1.10/r_things.o
mixbuffer           0x1000            sh2doom-1.10/i_sound.o
numlines            0x4               sh2doom-1.10/p_setup.o
saveSlot            0x4               sh2doom-1.10/m_menu.o
demoplayback        0x4               sh2doom-1.10/g_game.o
tmbbox              0x10              sh2doom-1.10/p_map.o
lumpcache           0x4               sh2doom-1.10/w_wad.o
lines               0x4               sh2doom-1.10/p_setup.o
hu_font             0xfc              sh2doom-1.10/hu_stuff.o
vol_lookup          0x20000           sh2doom-1.10/i_sound.o
rw_bottomtexturemid
                    0x4               sh2doom-1.10/r_segs.o
ptflags             0x4               sh2doom-1.10/p_maputl.o
bmaporgx            0x4               sh2doom-1.10/p_setup.o
screenblocks        0x4               sh2doom-1.10/m_menu.o
shootthing          0x4               sh2doom-1.10/p_map.o
skytexturemid       0x4               sh2doom-1.10/r_sky.o
finaletext          0x4               sh2doom-1.10/f_finale.o
numspechit          0x4               sh2doom-1.10/p_map.o
columnofs           0x1180            sh2doom-1.10/r_draw.o
joyymove            0x4               sh2doom-1.10/g_game.o
grabMouse           0x4               sh2doom-1.10/i_video.o
startepisode        0x4               sh2doom-1.10/d_main.o
activeceilings      0x78              sh2doom-1.10/p_ceilng.o
levelTimer          0x4               sh2doom-1.10/p_spec.o
screenheightarray   0x280             sh2doom-1.10/r_things.o
backsector          0x4               sh2doom-1.10/r_bsp.o
bottomtexture       0x4               sh2doom-1.10/r_segs.o
topslope            0x4               sh2doom-1.10/p_sight.o
swingx              0x4               sh2doom-1.10/p_pspr.o
localcmds           0x60              sh2doom-1.10/d_net.o
detailshift         0x4               sh2doom-1.10/r_main.o
slidemo             0x4               sh2doom-1.10/p_map.o
maskedtexture       0x4               sh2doom-1.10/r_segs.o
numlinespecials     0x2               sh2doom-1.10/p_spec.o
rw_scale            0x4               sh2doom-1.10/r_segs.o
scalelight          0xc00             sh2doom-1.10/r_main.o
sscount             0x4               sh2doom-1.10/r_main.o
topfrac             0x4               sh2doom-1.10/r_segs.o
lastflat            0x4               sh2doom-1.10/r_data.o
savename            0x100             sh2doom-1.10/g_game.o
spritewidth         0x4               sh2doom-1.10/r_data.o
gametime            0x4               sh2doom-1.10/d_net.o
newgame_e           0x4               sh2doom-1.10/m_menu.o
sendpause           0x4               sh2doom-1.10/g_game.o
vissprite_p         0x4               sh2doom-1.10/r_things.o
sprtopscreen        0x4               sh2doom-1.10/r_things.o
viewheight          0x4               sh2doom-1.10/r_draw.o
totalkills          0x4               sh2doom-1.10/g_game.o
bottomslope         0x4               sh2doom-1.10/p_sight.o
spritelights        0x4               sh2doom-1.10/r_things.o
key_speed           0x4               sh2doom-1.10/g_game.o
castattacking       0x4               sh2doom-1.10/f_finale.o
pixhighstep         0x4               sh2doom-1.10/r_segs.o
joybstrafe          0x4               sh2doom-1.10/g_game.o
consistancy         0x60              sh2doom-1.10/g_game.o
info                0x186a0           sh2doom-1.10/w_wad.o
scaledviewwidth     0x4               sh2doom-1.10/r_draw.o
messageNeedsInput   0x4               sh2doom-1.10/m_menu.o
wadfile             0x400             sh2doom-1.10/d_main.o
ds_x2               0x4               sh2doom-1.10/r_draw.o
bestslideline       0x4               sh2doom-1.10/p_map.o
markfloor           0x4               sh2doom-1.10/r_segs.o
viewangleoffset     0x4               sh2doom-1.10/r_main.o
iquehead            0x4               sh2doom-1.10/p_mobj.o
read_e2             0x4               sh2doom-1.10/m_menu.o
rw_x                0x4               sh2doom-1.10/r_segs.o
overflowsprite      0x3c              sh2doom-1.10/r_things.o
d_skill             0x4               sh2doom-1.10/g_game.o
advancedemo         0x4               sh2doom-1.10/d_main.o
viewactive          0x4               sh2doom-1.10/g_game.o
respawnmonsters     0x4               sh2doom-1.10/g_game.o
dc_yl               0x4               sh2doom-1.10/r_draw.o
key_right           0x4               sh2doom-1.10/g_game.o
viewangle           0x4               sh2doom-1.10/r_main.o
drone               0x4               sh2doom-1.10/d_main.o
setblocks           0x4               sh2doom-1.10/r_main.o
ds_source           0x4               sh2doom-1.10/r_draw.o
demosequence        0x4               sh2doom-1.10/d_main.o
tmdropoffz          0x4               sh2doom-1.10/p_map.o
bmaporgy            0x4               sh2doom-1.10/p_setup.o
sightcounts         0x8               sh2doom-1.10/p_sight.o
textures            0x4               sh2doom-1.10/r_data.o
viewwindowx         0x4               sh2doom-1.10/r_draw.o
profilecount        0x4               sh2doom-1.10/w_wad.o
numvertexes         0x4               sh2doom-1.10/p_setup.o
rw_scalestep        0x4               sh2doom-1.10/r_segs.o
lowfloor            0x4               sh2doom-1.10/p_maputl.o
tmxmove             0x4               sh2doom-1.10/p_map.o
bottomstep          0x4               sh2doom-1.10/r_segs.o
centeryfrac         0x4               sh2doom-1.10/r_main.o
ds_colormap         0x4               sh2doom-1.10/r_draw.o
reloadname          0x4               sh2doom-1.10/w_wad.o
turnheld            0x4               sh2doom-1.10/g_game.o
finalecount         0x4               sh2doom-1.10/f_finale.o
corpsehit           0x4               sh2doom-1.10/p_enemy.o
attackrange         0x4               sh2doom-1.10/p_map.o
modifiedgame        0x4               sh2doom-1.10/doomstat.o
rw_normalangle      0x4               sh2doom-1.10/r_segs.o
specials_e          0x4               sh2doom-1.10/p_saveg.o
spanstop            0x320             sh2doom-1.10/r_plane.o
shmFinished         0x4               sh2doom-1.10/i_video.o
castframes          0x4               sh2doom-1.10/f_finale.o
vsprsortedhead      0x3c              sh2doom-1.10/r_things.o
castnum             0x4               sh2doom-1.10/f_finale.o
linedef             0x4               sh2doom-1.10/r_bsp.o
mapdir              0x400             sh2doom-1.10/d_main.o
chat_on             0x4               sh2doom-1.10/hu_stuff.o
sttminus            0x4               sh2doom-1.10/st_lib.o
ylookup             0xd00             sh2doom-1.10/r_draw.o
deathmatchstarts    0x64              sh2doom-1.10/p_setup.o
usergame            0x4               sh2doom-1.10/g_game.o
key_up              0x4               sh2doom-1.10/g_game.o
numsprites          0x4               sh2doom-1.10/r_things.o
sides               0x4               sh2doom-1.10/p_setup.o
skytexture          0x4               sh2doom-1.10/r_sky.o
thinkercap          0xc               sh2doom-1.10/p_tick.o
rw_angle1           0x4               sh2doom-1.10/r_segs.o
viewwidth           0x4               sh2doom-1.10/r_draw.o
dscount             0x4               sh2doom-1.10/r_draw.o
starttime           0x4               sh2doom-1.10/g_game.o
numpatches          0x4               sh2doom-1.10/r_data.o
numflats            0x4               sh2doom-1.10/r_data.o
swingy              0x4               sh2doom-1.10/p_pspr.o
gameaction          0x4               sh2doom-1.10/g_game.o
chat_char           0x1               sh2doom-1.10/hu_stuff.o
dclicktime2         0x4               sh2doom-1.10/g_game.o
key_strafeleft      0x4               sh2doom-1.10/g_game.o
dclicks             0x4               sh2doom-1.10/g_game.o
worldhigh           0x4               sh2doom-1.10/r_segs.o
doShm               0x4               sh2doom-1.10/i_video.o
resendto            0x20              sh2doom-1.10/d_net.o
strace              0x10              sh2doom-1.10/p_sight.o
demo_p              0x4               sh2doom-1.10/g_game.o
gamestate           0x4               sh2doom-1.10/g_game.o
gameskill           0x4               sh2doom-1.10/g_game.o
bombsource          0x4               sh2doom-1.10/p_map.o
openrange           0x4               sh2doom-1.10/p_maputl.o
viewx               0x4               sh2doom-1.10/r_main.o
wminfo              0xc8              sh2doom-1.10/g_game.o
messageString       0x4               sh2doom-1.10/m_menu.o
save_p              0x4               sh2doom-1.10/p_saveg.o
d_map               0x4               sh2doom-1.10/g_game.o
secondslidefrac     0x4               sh2doom-1.10/p_map.o
bombdamage          0x4               sh2doom-1.10/p_map.o
activeplats         0x78              sh2doom-1.10/p_plats.o
options_e           0x4               sh2doom-1.10/m_menu.o
time                0x8               d:/projects/saturn/yaul/opt/x-tools/sh2eb-elf/bin/../lib/gcc/sh2eb-elf/8.3.0/../../../../sh2eb-elf/lib\libyaul.a(smpc_peripheral_init.o)
translationtables   0x4               sh2doom-1.10/r_draw.o
timingdemo          0x4               sh2doom-1.10/g_game.o
demorecording       0x4               sh2doom-1.10/g_game.o
quickSaveSlot       0x4               sh2doom-1.10/m_menu.o
nofit               0x4               sh2doom-1.10/p_map.o
channelstep         0x20              sh2doom-1.10/i_sound.o
itemrespawnque      0x500             sh2doom-1.10/p_mobj.o
texturecolumnofs    0x4               sh2doom-1.10/r_data.o
messageToPrint      0x4               sh2doom-1.10/m_menu.o
nodes               0x4               sh2doom-1.10/p_setup.o
detailLevel         0x4               sh2doom-1.10/m_menu.o
usething            0x4               sh2doom-1.10/p_map.o
maxsend             0x4               sh2doom-1.10/d_net.o
ds_y                0x4               sh2doom-1.10/r_draw.o
sound_e             0x4               sh2doom-1.10/m_menu.o
key_use             0x4               sh2doom-1.10/g_game.o
demoend             0x4               sh2doom-1.10/g_game.o
basedefault         0x400             sh2doom-1.10/d_main.o
tmymove             0x4               sh2doom-1.10/p_map.o
currentMenu         0x4               sh2doom-1.10/m_menu.o
tmy                 0x4               sh2doom-1.10/p_map.o
itemrespawntime     0x200             sh2doom-1.10/p_mobj.o
buttonlist          0x140             sh2doom-1.10/p_switch.o
displayplayer       0x4               sh2doom-1.10/g_game.o
dc_colormap         0x4               sh2doom-1.10/r_draw.o
translations        0x300             sh2doom-1.10/r_draw.o
smpc_peripheral_port_2
                    0xc               d:/projects/saturn/yaul/opt/x-tools/sh2eb-elf/bin/../lib/gcc/sh2eb-elf/8.3.0/../../../../sh2eb-elf/lib\libyaul.a(smpc_peripheral_init.o)
bestslidefrac       0x4               sh2doom-1.10/p_map.o
subsectors          0x4               sh2doom-1.10/p_setup.o
whichSkull          0x2               sh2doom-1.10/m_menu.o
texturecolumnlump   0x4               sh2doom-1.10/r_data.o
messx               0x4               sh2doom-1.10/m_menu.o
firstflat           0x4               sh2doom-1.10/r_data.o
dc_iscale           0x4               sh2doom-1.10/r_draw.o
xtoviewangle        0x504             sh2doom-1.10/r_main.o
transcolfunc        0x4               sh2doom-1.10/r_main.o
lengths             0x1b4             sh2doom-1.10/i_sound.o
worldlow            0x4               sh2doom-1.10/r_segs.o
newend              0x4               sh2doom-1.10/r_bsp.o
playeringame        0x10              sh2doom-1.10/g_game.o
mousebfire          0x4               sh2doom-1.10/g_game.o
firstspritelump     0x4               sh2doom-1.10/r_data.o
centerx             0x4               sh2doom-1.10/r_main.o
bombspot            0x4               sh2doom-1.10/p_map.o
sectors             0x4               sh2doom-1.10/p_setup.o
spritetopoffset     0x4               sh2doom-1.10/r_data.o
netdemo             0x4               sh2doom-1.10/g_game.o
blockmap            0x4               sh2doom-1.10/p_setup.o
clipangle           0x4               sh2doom-1.10/r_main.o
floorclip           0x280             sh2doom-1.10/r_plane.o
texturecomposite    0x4               sh2doom-1.10/r_data.o
playerstarts        0x28              sh2doom-1.10/p_setup.o
tmthing             0x4               sh2doom-1.10/p_map.o
mainzone            0x4               sh2doom-1.10/z_zone.o
screenSize          0x4               sh2doom-1.10/m_menu.o
usemouse            0x4               sh2doom-1.10/m_misc.o
aimslope            0x4               sh2doom-1.10/p_map.o
exptable2           0x80000           sh2doom-1.10/i_video.o
endstring           0xa0              sh2doom-1.10/m_menu.o
wadfiles            0x50              sh2doom-1.10/d_main.o
pixhigh             0x4               sh2doom-1.10/r_segs.o
sendsave            0x4               sh2doom-1.10/g_game.o
joybfire            0x4               sh2doom-1.10/g_game.o
lastnettic          0x4               sh2doom-1.10/d_net.o
gameepisode         0x4               sh2doom-1.10/g_game.o
rw_centerangle      0x4               sh2doom-1.10/r_segs.o
viewcos             0x4               sh2doom-1.10/r_main.o
itemOn              0x2               sh2doom-1.10/m_menu.o
channelrightvol_lookup
                    0x20              sh2doom-1.10/i_sound.o
nomonsters          0x4               sh2doom-1.10/d_main.o
mousebforward       0x4               sh2doom-1.10/g_game.o
nodrawers           0x4               sh2doom-1.10/g_game.o
distscale           0x500             sh2doom-1.10/r_plane.o
cachedystep         0x320             sh2doom-1.10/r_plane.o
showMessages        0x4               sh2doom-1.10/m_menu.o
nodeforplayer       0x10              sh2doom-1.10/d_net.o
spechit             0x20              sh2doom-1.10/p_map.o
maskedtexturecol    0x4               sh2doom-1.10/r_segs.o
lastpatch           0x4               sh2doom-1.10/r_data.o
dc_source           0x4               sh2doom-1.10/r_draw.o
maxframe            0x4               sh2doom-1.10/r_things.o
lastanim            0x4               sh2doom-1.10/p_spec.o
saveOldString       0x18              sh2doom-1.10/m_menu.o
totalsecret         0x4               sh2doom-1.10/g_game.o
tmfloorz            0x4               sh2doom-1.10/p_map.o
_internal_state_vdp1
                    0x38              d:/projects/saturn/yaul/opt/x-tools/sh2eb-elf/bin/../lib/gcc/sh2eb-elf/8.3.0/../../../../sh2eb-elf/lib\libyaul.a(vdp-internal.o)
ds_xstep            0x4               sh2doom-1.10/r_draw.o
segs                0x4               sh2doom-1.10/p_setup.o
steptable           0x400             sh2doom-1.10/i_sound.o
smpc_peripheral_port_1
                    0xc               d:/projects/saturn/yaul/opt/x-tools/sh2eb-elf/bin/../lib/gcc/sh2eb-elf/8.3.0/../../../../sh2eb-elf/lib\libyaul.a(smpc_peripheral_init.o)
openings            0xa000            sh2doom-1.10/r_plane.o
framecount          0x4               sh2doom-1.10/r_main.o
fastparm            0x4               sh2doom-1.10/d_main.o
basexscale          0x4               sh2doom-1.10/r_plane.o
inhelpscreens       0x4               sh2doom-1.10/m_menu.o
message_dontfuckwithme
                    0x4               sh2doom-1.10/hu_stuff.o
levelTimeCount      0x4               sh2doom-1.10/p_spec.o
viewwindowy         0x4               sh2doom-1.10/r_draw.o
defaultfile         0x4               sh2doom-1.10/m_misc.o
_internal_state_vdp2
                    0x1c0             d:/projects/saturn/yaul/opt/x-tools/sh2eb-elf/bin/../lib/gcc/sh2eb-elf/8.3.0/../../../../sh2eb-elf/lib\libyaul.a(vdp-internal.o)
trace               0x10              sh2doom-1.10/p_maputl.o
baseyscale          0x4               sh2doom-1.10/r_plane.o
mousebstrafe        0x4               sh2doom-1.10/g_game.o
channelstart        0x20              sh2doom-1.10/i_sound.o
frameon             0x4               sh2doom-1.10/d_net.o
vileobj             0x4               sh2doom-1.10/p_enemy.o
firstpatch          0x4               sh2doom-1.10/r_data.o
noblit              0x4               sh2doom-1.10/g_game.o
exptable            0x400             sh2doom-1.10/i_video.o
drawsegs            0x3000            sh2doom-1.10/r_bsp.o
joybuse             0x4               sh2doom-1.10/g_game.o
tmceilingz          0x4               sh2doom-1.10/p_map.o
messy               0x4               sh2doom-1.10/m_menu.o
curline             0x4               sh2doom-1.10/r_bsp.o
earlyout            0x4               sh2doom-1.10/p_maputl.o
openbottom          0x4               sh2doom-1.10/p_maputl.o
numsectors          0x4               sh2doom-1.10/p_setup.o
saveCharIndex       0x4               sh2doom-1.10/m_menu.o
sidedef             0x4               sh2doom-1.10/r_bsp.o
numtextures         0x4               sh2doom-1.10/r_data.o
channelhandles      0x20              sh2doom-1.10/i_sound.o
textureheight       0x4               sh2doom-1.10/r_data.o
bodyqueslot         0x4               sh2doom-1.10/g_game.o
demobuffer          0x4               sh2doom-1.10/g_game.o
sprtemp             0x32c             sh2doom-1.10/r_things.o
debugfile           0x4               sh2doom-1.10/d_main.o
exitmsg             0x50              sh2doom-1.10/d_net.o
soundtarget         0x4               sh2doom-1.10/p_enemy.o
read_e              0x4               sh2doom-1.10/m_menu.o
vertexes            0x4               sh2doom-1.10/p_setup.o
autostart           0x4               sh2doom-1.10/d_main.o
rw_offset           0x4               sh2doom-1.10/r_segs.o
flatmemory          0x4               sh2doom-1.10/r_data.o
texturememory       0x4               sh2doom-1.10/r_data.o
tempstring          0x50              sh2doom-1.10/m_menu.o
frontsector         0x4               sh2doom-1.10/r_bsp.o
usejoystick         0x4               sh2doom-1.10/m_misc.o
dccount             0x4               sh2doom-1.10/r_draw.o
spritename          0x4               sh2doom-1.10/r_things.o
emptycmd            0x8               sh2doom-1.10/i_system.o
iquetail            0x4               sh2doom-1.10/p_mobj.o
levelstarttic       0x4               sh2doom-1.10/g_game.o
totalitems          0x4               sh2doom-1.10/g_game.o
basecolfunc         0x4               sh2doom-1.10/r_main.o
d_episode           0x4               sh2doom-1.10/g_game.o
vissprites          0x1e00            sh2doom-1.10/r_things.o
reboundstore        0x68              sh2doom-1.10/d_net.o
ceilingline         0x4               sh2doom-1.10/p_map.o
usegamma            0x4               sh2doom-1.10/v_video.o
numswitches         0x4               sh2doom-1.10/p_switch.o
channels            0x20              sh2doom-1.10/i_sound.o
viewplayer          0x4               sh2doom-1.10/r_main.o
nettics             0x20              sh2doom-1.10/d_net.o
spriteoffset        0x4               sh2doom-1.10/r_data.o
ceilingclip         0x280             sh2doom-1.10/r_plane.o
toptexture          0x4               sh2doom-1.10/r_segs.o
deathmatch          0x4               sh2doom-1.10/g_game.o
walllights          0x4               sh2doom-1.10/r_segs.o
epi                 0x4               sh2doom-1.10/m_menu.o
pspritescale        0x4               sh2doom-1.10/r_things.o
solidsegs           0x100             sh2doom-1.10/r_bsp.o
bmapheight          0x4               sh2doom-1.10/p_setup.o
eventtail           0x4               sh2doom-1.10/d_main.o
skiptics            0x4               sh2doom-1.10/d_net.o
cacheddistance      0x320             sh2doom-1.10/r_plane.o
statcopy            0x4               sh2doom-1.10/g_game.o
bottomfrac          0x4               sh2doom-1.10/r_segs.o
viewimage           0x4               sh2doom-1.10/r_draw.o
_internal_slave_state
                    0x8               d:/projects/saturn/yaul/opt/x-tools/sh2eb-elf/bin/../lib/gcc/sh2eb-elf/8.3.0/../../../../sh2eb-elf/lib\libyaul.a(internal.o)
pixlowstep          0x4               sh2doom-1.10/r_segs.o
ceilingfunc         0x4               sh2doom-1.10/r_plane.o
key_strafe          0x4               sh2doom-1.10/g_game.o
numsides            0x4               sh2doom-1.10/p_setup.o
ds_xfrac            0x4               sh2doom-1.10/r_draw.o
linetarget          0x4               sh2doom-1.10/p_map.o
braintargets        0x80              sh2doom-1.10/p_enemy.o
dclickstate         0x4               sh2doom-1.10/g_game.o
t2y                 0x4               sh2doom-1.10/p_sight.o
segtextured         0x4               sh2doom-1.10/r_segs.o
texturecompositesize
                    0x4               sh2doom-1.10/r_data.o
viewangletox        0x4000            sh2doom-1.10/r_main.o
viewsin             0x4               sh2doom-1.10/r_main.o
la_damage           0x4               sh2doom-1.10/p_map.o
ceilingplane        0x4               sh2doom-1.10/r_plane.o
sightzstart         0x4               sh2doom-1.10/p_sight.o
yslope              0x320             sh2doom-1.10/r_plane.o
rw_distance         0x4               sh2doom-1.10/r_segs.o
colfunc             0x4               sh2doom-1.10/r_main.o
mousex              0x4               sh2doom-1.10/g_game.o
key_left            0x4               sh2doom-1.10/g_game.o
numdefaults         0x4               sh2doom-1.10/m_misc.o
opentop             0x4               sh2doom-1.10/p_maputl.o
pagename            0x4               sh2doom-1.10/d_main.o
defdemoname         0x4               sh2doom-1.10/g_game.o
doomcom             0x4               sh2doom-1.10/d_net.o
numlumps            0x4               sh2doom-1.10/w_wad.o
floatok             0x4               sh2doom-1.10/p_map.o
viletryx            0x4               sh2doom-1.10/p_enemy.o
mfloorclip          0x4               sh2doom-1.10/r_things.o
channelsend         0x20              sh2doom-1.10/i_sound.o
pspriteiscale       0x4               sh2doom-1.10/r_things.o
casttics            0x4               sh2doom-1.10/f_finale.o
onground            0x4               sh2doom-1.10/p_user.o
episodes_e          0x4               sh2doom-1.10/m_menu.o
resendcount         0x20              sh2doom-1.10/d_net.o
savegamestrings     0xf0              sh2doom-1.10/m_menu.o
setdetail           0x4               sh2doom-1.10/r_main.o
finaleflat          0x4               sh2doom-1.10/f_finale.o
channelstepremainder
                    0x20              sh2doom-1.10/i_sound.o
blocklinks          0x4               sh2doom-1.10/p_setup.o
midtexture          0x4               sh2doom-1.10/r_segs.o
ticdup              0x4               sh2doom-1.10/d_net.o
numbraintargets     0x4               sh2doom-1.10/p_enemy.o
colormaps           0x4               sh2doom-1.10/r_data.o
consoleplayer       0x4               sh2doom-1.10/g_game.o
spritememory        0x4               sh2doom-1.10/r_data.o
frameskip           0x10              sh2doom-1.10/d_net.o
numnodes            0x4               sh2doom-1.10/p_setup.o
centerxfrac         0x4               sh2doom-1.10/r_main.o
nodeingame          0x20              sh2doom-1.10/d_net.o
leveltime           0x4               sh2doom-1.10/p_tick.o
numsegs             0x4               sh2doom-1.10/p_setup.o
screens             0x14              sh2doom-1.10/v_video.o
audio_fd            0x4               sh2doom-1.10/i_sound.o
startmap            0x4               sh2doom-1.10/d_main.o
centery             0x4               sh2doom-1.10/r_main.o
savedescription     0x20              sh2doom-1.10/g_game.o
savegameslot        0x4               sh2doom-1.10/g_game.o
dclickstate2        0x4               sh2doom-1.10/g_game.o
texturetranslation  0x4               sh2doom-1.10/r_data.o
ds_p                0x4               sh2doom-1.10/r_bsp.o

Memory Configuration

Name             Origin             Length             Attributes
boot             0x0000000006000000 0x0000000000000c00 xw
master_stack     0x0000000006004000 0x0000000000002000 w
slave_stack      0x0000000006002000 0x0000000000001400 w
ram              0x0000000006004000 0x00000000000fc000 xw
*default*        0x0000000000000000 0xffffffffffffffff

Linker script and memory map

                [!provide]                        PROVIDE (__master_stack = ORIGIN (master_stack))
                0x0000000006002000                PROVIDE (__master_stack_end = (ORIGIN (master_stack) - LENGTH (master_stack)))
                [!provide]                        PROVIDE (__slave_stack = ORIGIN (slave_stack))
                0x0000000006000c00                PROVIDE (__slave_stack_end = (ORIGIN (slave_stack) - LENGTH (slave_stack)))

.text           0x0000000006004000    0x32810
                [!provide]                        PROVIDE (__text_start = .)
 *(.text)
 .text          0x0000000006004000       0x60 d:/projects/saturn/yaul/opt/x-tools/sh2eb-elf/bin/../lib/gcc/sh2eb-elf/8.3.0/../../../../sh2eb-elf/lib/crt0.o
                0x0000000006004000                _start
 .text          0x0000000006004060       0x64 d:/projects/saturn/yaul/opt/x-tools/sh2eb-elf/bin/../lib/gcc/sh2eb-elf/8.3.0/../../../../sh2eb-elf/lib/init.o
                0x0000000006004060                _user_init
 .text          0x00000000060040c4       0x60 d:/projects/saturn/yaul/opt/x-tools/sh2eb-elf/bin/../lib/gcc/sh2eb-elf/8.3.0/../../../../sh2eb-elf/lib/c++-support.o
                0x00000000060040c4                ___cxa_pure_virtual
                0x00000000060040e8                __Znwj
                0x00000000060040f4                __Znaj
                0x0000000006004100                __ZdlPv
                0x000000000600410c                __ZdaPv
                0x0000000006004118                __ZdlPvj
 .text          0x0000000006004124     0x1b74 sh2doom-1.10/am_map.o
                0x0000000006004124                _AM_getIslope
                0x000000000600419c                _AM_activateNewScale
                0x000000000600425c                _AM_saveScaleAndLoc
                0x00000000060042a0                _AM_restoreScaleAndLoc
                0x000000000600436c                _AM_addMark
                0x00000000060043e8                _AM_findMinMaxBoundaries
                0x0000000006004524                _AM_changeWindowLoc
                0x00000000060045e8                _AM_initVariables
                0x0000000006004748                _AM_loadPics
                0x000000000600479c                _AM_unloadPics
                0x0000000006004804                _AM_clearMarks
                0x0000000006004824                _AM_LevelInit
                0x00000000060048c8                _AM_Stop
                0x00000000060048fc                _AM_Start
                0x0000000006004990                _AM_minOutWindowScale
                0x00000000060049c4                _AM_maxOutWindowScale
                0x00000000060049f8                _AM_Responder
                0x0000000006004e44                _AM_changeWindowScale
                0x0000000006004ebc                _AM_doFollowPlayer
                0x0000000006004f98                _AM_updateLightLev
                0x0000000006005010                _AM_Ticker
                0x00000000060050a0                _AM_clearFB
                0x00000000060050c8                _AM_clipMline
                0x0000000006005420                _AM_drawFline
                0x00000000060054fc                _AM_drawMline
                0x000000000600552c                _AM_drawGrid
                0x0000000006005628                _AM_drawWalls
                0x0000000006005758                _AM_rotate
                0x00000000060057c8                _AM_drawLineCharacter
                0x000000000600590c                _AM_drawPlayers
                0x0000000006005a2c                _AM_drawThings
                0x0000000006005ac4                _AM_drawMarks
                0x0000000006005b9c                _AM_drawCrosshair
                0x0000000006005bc8                _AM_Drawer
 .text          0x0000000006005c98        0x0 sh2doom-1.10/d_items.o
 .text          0x0000000006005c98      0xba4 sh2doom-1.10/d_main.o
                0x0000000006005c98                _D_PostEvent
                0x0000000006005ccc                _D_ProcessEvents
                0x0000000006005d58                _D_PageTicker
                0x0000000006005d78                _D_PageDrawer
                0x00000000060061a4                _D_Display
                0x00000000060061c0                _D_AdvanceDemo
                0x00000000060061cc                _D_DoAdvanceDemo
                0x0000000006006360                _D_DoomLoop
                0x00000000060064a0                _D_StartTitle
                0x00000000060064c0                _D_AddFile
                0x0000000006006524                _IdentifyVersion
                0x0000000006006528                _FindResponseFile
                0x000000000600652c                _D_DoomMain
 .text          0x000000000600683c      0xec0 sh2doom-1.10/d_net.o
                0x000000000600683c                _NetbufferSize
                0x0000000006006850                _NetbufferChecksum
                0x00000000060068a0                _ExpandTics
                0x00000000060068e4                _HSendPacket
                0x00000000060069c4                _HGetPacket
                0x0000000006006aac                _GetPackets
                0x0000000006006cf0                _NetUpdate
                0x0000000006006f3c                _CheckAbort
                0x0000000006006fcc                _D_ArbitrateNetStart
                0x00000000060071c8                _D_CheckNetGame
                0x000000000600732c                _D_QuitNetGame
                0x00000000060073e8                _TryRunTics
 .text          0x00000000060076fc        0x0 sh2doom-1.10/doomdef.o
 .text          0x00000000060076fc        0x0 sh2doom-1.10/doomstat.o
 .text          0x00000000060076fc        0x0 sh2doom-1.10/dstrings.o
 .text          0x00000000060076fc      0xda0 sh2doom-1.10/f_finale.o
                0x0000000006007b3c                _F_StartFinale
                0x0000000006007d2c                _F_Responder
                0x0000000006007d60                _F_TextWrite
                0x0000000006007e90                _F_StartCast
                0x0000000006007f18                _F_Ticker
                0x0000000006008020                _F_CastTicker
                0x0000000006008040                _F_CastResponder
                0x0000000006008064                _F_CastPrint
                0x0000000006008154                _F_CastDrawer
                0x0000000006008208                _F_DrawPatchCol
                0x0000000006008280                _F_BunnyScroll
                0x00000000060083f0                _F_Drawer
 .text          0x000000000600849c      0x488 sh2doom-1.10/f_wipe.o
                0x000000000600849c                _wipe_doColorXForm
                0x00000000060084f4                _wipe_exitColorXForm
                0x00000000060084f8                _wipe_doMelt
                0x000000000600863c                _wipe_initColorXForm
                0x0000000006008664                _wipe_exitMelt
                0x0000000006008680                _wipe_shittyColMajorXform
                0x000000000600870c                _wipe_initMelt
                0x000000000600880c                _wipe_StartScreen
                0x0000000006008830                _wipe_EndScreen
                0x0000000006008884                _wipe_ScreenWipe
 .text          0x0000000006008924     0x2208 sh2doom-1.10/g_game.o
                0x0000000006008924                _G_CmdChecksum
                0x0000000006008928                _G_BuildTiccmd
                0x0000000006008ee0                _G_DoLoadLevel
                0x0000000006009084                _G_Responder
                0x00000000060092d0                _G_PlayerFinishLevel
                0x0000000006009344                _G_PlayerReborn
                0x000000000600943c                _G_InitPlayer
                0x0000000006009448                _G_CheckSpot
                0x00000000060095cc                _G_DeathMatchSpawnPlayer
                0x00000000060096a4                _G_DoReborn
                0x000000000600977c                _G_ScreenShot
                0x0000000006009788                _G_ExitLevel
                0x00000000060097a0                _G_SecretExitLevel
                0x00000000060097e8                _G_DoCompleted
                0x0000000006009af4                _G_WorldDone
                0x0000000006009b94                _G_DoWorldDone
                0x0000000006009bd8                _G_LoadGame
                0x0000000006009bfc                _G_SaveGame
                0x0000000006009c28                _G_DoSaveGame
                0x0000000006009dbc                _G_DeferedInitNew
                0x0000000006009de0                _G_InitNew
                0x000000000600a06c                _G_DoLoadGame
                0x000000000600a1d8                _G_DoNewGame
                0x000000000600a25c                _G_RecordDemo
                0x000000000600a2c4                _G_BeginRecording
                0x000000000600a388                _G_DeferedPlayDemo
                0x000000000600a39c                _G_DoPlayDemo
                0x000000000600a4a4                _G_TimeDemo
                0x000000000600a4cc                _G_CheckDemoStatus
                0x000000000600a630                _G_ReadDemoTiccmd
                0x000000000600a674                _G_WriteDemoTiccmd
                0x000000000600a704                _G_Ticker
 .text          0x000000000600ab2c      0x6a0 sh2doom-1.10/hu_lib.o
                0x000000000600ab2c                _HUlib_init
                0x000000000600ab30                _HUlib_clearTextLine
                0x000000000600ab44                _HUlib_initTextLine
                0x000000000600ab60                _HUlib_addCharToTextLine
                0x000000000600ab8c                _HUlib_delCharFromTextLine
                0x000000000600abac                _HUlib_drawTextLine
                0x000000000600acb8                _HUlib_eraseTextLine
                0x000000000600ada0                _HUlib_initSText
                0x000000000600ae34                _HUlib_addLineToSText
                0x000000000600ae84                _HUlib_addMessageToSText
                0x000000000600af58                _HUlib_drawSText
                0x000000000600afb4                _HUlib_eraseSText
                0x000000000600b034                _HUlib_initIText
                0x000000000600b058                _HUlib_delCharFromIText
                0x000000000600b080                _HUlib_eraseLineFromIText
                0x000000000600b0ac                _HUlib_resetIText
                0x000000000600b0c0                _HUlib_addPrefixToIText
                0x000000000600b114                _HUlib_keyInIText
                0x000000000600b180                _HUlib_drawIText
                0x000000000600b19c                _HUlib_eraseIText
 .text          0x000000000600b1cc      0x8a0 sh2doom-1.10/hu_stuff.o
                0x000000000600b1cc                _ForeignTranslation
                0x000000000600b1e4                _HU_Init
                0x000000000600b248                _HU_Stop
                0x000000000600b254                _HU_Start
                0x000000000600b3d0                _HU_Drawer
                0x000000000600b418                _HU_Erase
                0x000000000600b44c                _HU_Ticker
                0x000000000600b5fc                _HU_queueChatChar
                0x000000000600b640                _HU_dequeueChatChar
                0x000000000600b670                _HU_Responder
 .text          0x000000000600ba6c        0x0 sh2doom-1.10/i_main.o
 .text          0x000000000600ba6c        0x0 sh2doom-1.10/i_net.o
 .text          0x000000000600ba6c       0xb4 sh2doom-1.10/i_sound.o
                0x000000000600ba6c                _myioctl
                0x000000000600ba70                _getsfx
                0x000000000600ba74                _addsfx
                0x000000000600ba78                _I_SetChannels
                0x000000000600ba7c                _I_SetSfxVolume
                0x000000000600ba80                _I_SetMusicVolume
                0x000000000600ba84                _I_GetSfxLumpNum
                0x000000000600ba88                _I_StartSound
                0x000000000600ba8c                _I_StopSound
                0x000000000600ba90                _I_SoundIsPlaying
                0x000000000600ba94                _I_UpdateSound
                0x000000000600ba98                _I_SubmitSound
                0x000000000600ba9c                _I_UpdateSoundParams
                0x000000000600baa0                _I_ShutdownSound
                0x000000000600baa4                _I_InitSound
                0x000000000600baa8                _I_InitMusic
                0x000000000600baac                _I_ShutdownMusic
                0x000000000600bab0                _I_PlaySong
                0x000000000600bac8                _I_PauseSong
                0x000000000600bacc                _I_ResumeSong
                0x000000000600bad0                _I_StopSong
                0x000000000600bae4                _I_UnRegisterSong
                0x000000000600bae8                _I_RegisterSong
                0x000000000600baec                _I_QrySongPlaying
                0x000000000600bb14                _I_HandleSoundTimer
                0x000000000600bb18                _I_SoundSetTimer
                0x000000000600bb1c                _I_SoundDelTimer
 .text          0x000000000600bb20       0x90 sh2doom-1.10/i_system.o
                0x000000000600bb20                _I_BaseTiccmd
                0x000000000600bb2c                _I_GetHeapSize
                0x000000000600bb3c                _I_ZoneBase
                0x000000000600bb58                _I_GetTime
                0x000000000600bb5c                _I_Init
                0x000000000600bb68                _I_Quit
                0x000000000600bb6c                _I_WaitVBL
                0x000000000600bb70                _I_BeginRead
                0x000000000600bb74                _I_EndRead
                0x000000000600bb78                _I_AllocLow
                0x000000000600bba4                _I_Error
 .text          0x000000000600bbb0      0x334 sh2doom-1.10/i_video.o
                0x000000000600bbb0                _xlatekey
                0x000000000600bbb4                _I_ShutdownGraphics
                0x000000000600bbb8                _I_StartFrame
                0x000000000600bbbc                _I_GetEvent
                0x000000000600bbc0                _I_StartTic
                0x000000000600bbc4                _I_UpdateNoBlit
                0x000000000600bbc8                _I_FinishUpdate
                0x000000000600bc70                _I_ReadScreen
                0x000000000600bc88                _I_SetPalette
                0x000000000600bc8c                _I_InitGraphics
                0x000000000600bc90                _InitExpand
                0x000000000600bcc0                _InitExpand2
                0x000000000600bd48                _Expand4
 .text          0x000000000600bee4        0x0 sh2doom-1.10/info.o
 .text          0x000000000600bee4       0x40 sh2doom-1.10/m_bbox.o
                0x000000000600bee4                _M_ClearBox
                0x000000000600bef8                _M_AddToBox
 .text          0x000000000600bf24      0x158 sh2doom-1.10/m_cheat.o
                0x000000000600bf24                _cht_CheckCheat
                0x000000000600c02c                _cht_GetParam
 .text          0x000000000600c07c      0x114 sh2doom-1.10/m_fixed.o
                0x000000000600c07c                _FixedMul
                0x000000000600c088                _FixedDiv2
                0x000000000600c138                _FixedDiv
 .text          0x000000000600c190     0x1dc0 sh2doom-1.10/m_menu.o
                0x000000000600c190                _M_Sound
                0x000000000600c1ac                _M_Options
                0x000000000600c1c8                _M_ChangeMessages
                0x000000000600c214                _M_ReadThis
                0x000000000600c230                _M_ReadThis2
                0x000000000600c24c                _M_FinishReadThis
                0x000000000600c268                _M_ChangeDetail
                0x000000000600c278                _M_DrawMainMenu
                0x000000000600c29c                _M_DrawNewGame
                0x000000000600c2e0                _M_DrawEpisode
                0x000000000600c304                _M_QuitDOOM
                0x000000000600c3b0                _M_LoadSelect
                0x000000000600c3e8                _M_SaveSelect
                0x000000000600c44c                _M_SfxVol
                0x000000000600c488                _M_MusicVol
                0x000000000600c4c4                _M_SizeDisplay
                0x000000000600c51c                _M_ChangeSensitivity
                0x000000000600c550                _M_DrawReadThis1
                0x000000000600c5b8                _M_DrawReadThis2
                0x000000000600c620                _M_QuitResponse
                0x000000000600c6b8                _M_QuickLoadResponse
                0x000000000600c6e4                _M_QuickSaveResponse
                0x000000000600c73c                _M_VerifyNightmare
                0x000000000600c770                _M_ChooseSkill
                0x000000000600c7dc                _M_EndGameResponse
                0x000000000600c84c                _M_LoadGame
                0x000000000600c87c                _M_SaveGame
                0x000000000600c8ec                _M_NewGame
                0x000000000600c96c                _M_Episode
                0x000000000600c9fc                _M_EndGame
                0x000000000600ca78                _M_ReadSaveStrings
                0x000000000600ca7c                _M_DrawSaveLoadBorder
                0x000000000600cafc                _M_DoSave
                0x000000000600cb38                _M_QuickSave
                0x000000000600cc08                _M_QuickLoad
                0x000000000600ccd4                _M_DrawThermo
                0x000000000600cd8c                _M_DrawSound
                0x000000000600cdf4                _M_DrawOptions
                0x000000000600cecc                _M_DrawEmptyCell
                0x000000000600cf0c                _M_DrawSelCell
                0x000000000600cf4c                _M_StartMessage
                0x000000000600cf84                _M_StopMessage
                0x000000000600cfa0                _M_StringWidth
                0x000000000600d014                _M_StringHeight
                0x000000000600d074                _M_WriteText
                0x000000000600d118                _M_DrawLoad
                0x000000000600d194                _M_DrawSave
                0x000000000600d264                _M_Responder
                0x000000000600dbcc                _M_StartControlPanel
                0x000000000600dbe8                _M_Drawer
                0x000000000600de28                _M_ClearMenus
                0x000000000600de34                _M_SetupNextMenu
                0x000000000600de48                _M_Ticker
                0x000000000600de70                _M_Init
 .text          0x000000000600df50       0xac sh2doom-1.10/m_misc.o
                0x000000000600df50                _M_DrawText
                0x000000000600dff4                _M_SaveDefaults
                0x000000000600dff8                _M_LoadDefaults
 .text          0x000000000600dffc       0x4c sh2doom-1.10/m_random.o
                0x000000000600dffc                _P_Random
                0x000000000600e018                _M_Random
                0x000000000600e034                _M_ClearRandom
 .text          0x000000000600e048        0x0 sh2doom-1.10/m_swap.o
 .text          0x000000000600e048      0x394 sh2doom-1.10/p_ceilng.o
                0x000000000600e048                _EV_DoCeiling
                0x000000000600e1c4                _P_AddActiveCeiling
                0x000000000600e1e8                _P_RemoveActiveCeiling
                0x000000000600e22c                _T_MoveCeiling
                0x000000000600e368                _P_ActivateInStasisCeiling
                0x000000000600e3a4                _EV_CeilingCrushStop
 .text          0x000000000600e3dc      0x660 sh2doom-1.10/p_doors.o
                0x000000000600e3dc                _T_VerticalDoor
                0x000000000600e530                _EV_DoDoor
                0x000000000600e6c0                _EV_DoLockedDoor
                0x000000000600e78c                _EV_VerticalDoor
                0x000000000600e97c                _P_SpawnDoorCloseIn30
                0x000000000600e9cc                _P_SpawnDoorRaiseIn5Mins
 .text          0x000000000600ea3c     0x2260 sh2doom-1.10/p_enemy.o
                0x000000000600ea3c                _PIT_VileCheck
                0x000000000600eae8                _P_RecursiveSound
                0x000000000600ebd0                _P_NoiseAlert
                0x000000000600ebf4                _P_CheckMeleeRange
                0x000000000600ec5c                _P_CheckMissileRange
                0x000000000600ed4c                _P_Move
                0x000000000600ee90                _P_TryWalk
                0x000000000600eeb8                _P_NewChaseDir
                0x000000000600f0d8                _P_LookForPlayers
                0x000000000600f2e4                _A_KeenDie
                0x000000000600f350                _A_Look
                0x000000000600f46c                _A_Chase
                0x000000000600f674                _A_FaceTarget
                0x000000000600f6e4                _A_PosAttack
                0x000000000600f78c                _A_SPosAttack
                0x000000000600f844                _A_CPosAttack
                0x000000000600f8ec                _A_CPosRefire
                0x000000000600f94c                _A_SpidRefire
                0x000000000600f9ac                _A_BspiAttack
                0x000000000600f9e4                _A_TroopAttack
                0x000000000600fa6c                _A_SargAttack
                0x000000000600fae0                _A_HeadAttack
                0x000000000600fb68                _A_CyberAttack
                0x000000000600fba0                _A_BruisAttack
                0x000000000600fc24                _A_SkelMissile
                0x000000000600fc88                _A_Tracer
                0x000000000600fdfc                _A_SkelWhoosh
                0x000000000600fe28                _A_SkelFist
                0x000000000600feb4                _A_VileChase
                0x000000000601001c                _A_VileStart
                0x0000000006010028                _A_Fire
                0x00000000060100c4                _A_StartFire
                0x00000000060100e4                _A_FireCrackle
                0x0000000006010104                _A_VileTarget
                0x000000000601015c                _A_VileAttack
                0x000000000601023c                _A_FatRaise
                0x000000000601025c                _A_FatAttack1
                0x00000000060102e0                _A_FatAttack2
                0x0000000006010368                _A_FatAttack3
                0x000000000601042c                _A_SkullAttack
                0x0000000006010500                _A_PainShootSkull
                0x0000000006010634                _A_PainAttack
                0x0000000006010660                _A_PainDie
                0x00000000060106ac                _A_Scream
                0x0000000006010748                _A_XScream
                0x0000000006010754                _A_Pain
                0x0000000006010770                _A_Fall
                0x000000000601077c                _A_Explode
                0x0000000006010790                _A_BossDeath
                0x0000000006010918                _A_Hoof
                0x0000000006010938                _A_Metal
                0x0000000006010958                _A_BabyMetal
                0x0000000006010978                _A_OpenShotgun2
                0x0000000006010984                _A_LoadShotgun2
                0x0000000006010990                _A_CloseShotgun2
                0x00000000060109b8                _A_BrainAwake
                0x0000000006010a30                _A_BrainPain
                0x0000000006010a3c                _A_BrainScream
                0x0000000006010af4                _A_BrainExplode
                0x0000000006010b74                _A_BrainDie
                0x0000000006010b80                _A_BrainSpit
                0x0000000006010c28                _A_SpawnSound
                0x0000000006010c58                _A_SpawnFly
                0x0000000006010c74                _A_PlayerScream
 .text          0x0000000006010c9c      0x678 sh2doom-1.10/p_floor.o
                0x0000000006010c9c                _T_MovePlane
                0x0000000006010dd0                _T_MoveFloor
                0x0000000006010e70                _EV_DoFloor
                0x00000000060111b4                _EV_BuildStairs
 .text          0x0000000006011314      0xe7c sh2doom-1.10/p_inter.o
                0x0000000006011314                _P_GiveAmmo
                0x0000000006011440                _P_GiveWeapon
                0x0000000006011558                _P_GiveBody
                0x0000000006011588                _P_GiveArmor
                0x00000000060115a0                _P_GiveCard
                0x00000000060115c0                _P_GivePower
                0x000000000601164c                _P_TouchSpecialThing
                0x0000000006011ce4                _P_KillMobj
                0x0000000006011ebc                _P_DamageMobj
 .text          0x0000000006012190      0x450 sh2doom-1.10/p_lights.o
                0x0000000006012190                _T_StrobeFlash
                0x00000000060121b8                _T_Glow
                0x0000000006012200                _T_FireFlicker
                0x0000000006012248                _T_LightFlash
                0x0000000006012298                _P_SpawnFireFlicker
                0x00000000060122e8                _P_SpawnLightFlash
                0x000000000601234c                _P_SpawnStrobeFlash
                0x00000000060123d8                _EV_StartLightStrobing
                0x0000000006012440                _EV_TurnTagLightsOff
                0x00000000060124e8                _EV_LightTurnOn
                0x0000000006012590                _P_SpawnGlowingLight
 .text          0x00000000060125e0     0x14ec sh2doom-1.10/p_map.o
                0x00000000060125e0                _PTR_SlideTraverse
                0x00000000060126ac                _PTR_AimTraverse
                0x000000000601282c                _PTR_ShootTraverse
                0x0000000006012a9c                _PIT_StompThing
                0x0000000006012b34                _PIT_CheckLine
                0x0000000006012c28                _PIT_CheckThing
                0x0000000006012dd4                _PTR_UseTraverse
                0x0000000006012e4c                _PIT_RadiusAttack
                0x0000000006012fdc                _P_TeleportMove
                0x000000000601315c                _P_CheckPosition
                0x0000000006013328                _P_TryMove
                0x0000000006013494                _P_ThingHeightClip
                0x0000000006013500                _PIT_ChangeSector
                0x00000000060135f0                _P_HitSlideLine
                0x000000000601361c                _P_SlideMove
                0x00000000060137e8                _P_AimLineAttack
                0x00000000060138a0                _P_LineAttack
                0x0000000006013934                _P_UseLines
                0x0000000006013990                _P_RadiusAttack
                0x0000000006013a50                _P_ChangeSector
 .text          0x0000000006013acc      0xa10 sh2doom-1.10/p_maputl.o
                0x0000000006013acc                _P_AproxDistance
                0x0000000006013b0c                _P_PointOnLineSide
                0x0000000006013b7c                _P_BoxOnLineSide
                0x0000000006013c30                _P_PointOnDivlineSide
                0x0000000006013ccc                _P_MakeDivline
                0x0000000006013ce0                _P_InterceptVector
                0x0000000006013d64                _PIT_AddLineIntercepts
                0x0000000006013e40                _PIT_AddThingIntercepts
                0x0000000006013ee8                _P_LineOpening
                0x0000000006013f54                _P_UnsetThingPosition
                0x0000000006013ffc                _P_SetThingPosition
                0x00000000060140b4                _P_BlockLinesIterator
                0x0000000006014148                _P_BlockThingsIterator
                0x00000000060141b0                _P_TraverseIntercepts
                0x0000000006014240                _P_PathTraverse
 .text          0x00000000060144dc     0x1148 sh2doom-1.10/p_mobj.o
                0x00000000060144dc                _P_SpawnMobj
                0x0000000006014608                _P_RemoveMobj
                0x00000000060146b0                _P_SetMobjState
                0x000000000601473c                _P_ExplodeMissile
                0x00000000060147b0                _P_ZMovement
                0x0000000006014948                _P_XYMovement
                0x0000000006014bdc                _P_NightmareRespawn
                0x0000000006014ce8                _P_MobjThinker
                0x0000000006014dbc                _P_RespawnSpecials
                0x0000000006014f0c                _P_SpawnPlayer
                0x0000000006015084                _P_SpawnMapThing
                0x00000000060152a4                _P_SpawnPuff
                0x000000000601532c                _P_SpawnBlood
                0x00000000060153bc                _P_CheckMissileSpawn
                0x000000000601541c                _P_SpawnMissile
                0x000000000601552c                _P_SpawnPlayerMissile
 .text          0x0000000006015624      0x410 sh2doom-1.10/p_plats.o
                0x0000000006015624                _EV_DoPlat
                0x000000000601583c                _P_ActivateInStasis
                0x0000000006015874                _EV_StopPlat
                0x00000000060158b4                _P_AddActivePlat
                0x00000000060158e4                _P_RemoveActivePlat
                0x000000000601593c                _T_PlatRaise
 .text          0x0000000006015a34      0xd84 sh2doom-1.10/p_pspr.o
                0x0000000006015a34                _P_SetPsprite
                0x0000000006015b08                _P_CalcSwing
                0x0000000006015b74                _P_BringUpWeapon
                0x0000000006015bd8                _P_CheckAmmo
                0x0000000006015d04                _P_FireWeapon
                0x0000000006015d5c                _P_DropWeapon
                0x0000000006015d7c                _A_WeaponReady
                0x0000000006015eb0                _A_ReFire
                0x0000000006015eec                _A_CheckReload
                0x0000000006015ef8                _A_Lower
                0x0000000006015f48                _A_Raise
                0x0000000006015f84                _A_GunFlash
                0x0000000006015fc0                _A_Punch
                0x0000000006016084                _A_Saw
                0x00000000060161e0                _A_FireMissile
                0x000000000601620c                _A_FireBFG
                0x0000000006016238                _A_FirePlasma
                0x0000000006016290                _P_BulletSlope
                0x00000000060162f8                _P_GunShot
                0x0000000006016390                _A_FirePistol
                0x0000000006016404                _A_FireShotgun
                0x0000000006016484                _A_FireShotgun2
                0x000000000601657c                _A_FireCGun
                0x0000000006016648                _A_Light0
                0x0000000006016654                _A_Light1
                0x0000000006016660                _A_Light2
                0x000000000601666c                _A_BFGSpray
                0x0000000006016724                _A_BFGsound
                0x0000000006016730                _P_SetupPsprites
                0x0000000006016754                _P_MovePsprites
 .text          0x00000000060167b8      0xa54 sh2doom-1.10/p_saveg.o
                0x00000000060167b8                _P_ArchivePlayers
                0x0000000006016860                _P_UnArchivePlayers
                0x0000000006016908                _P_ArchiveWorld
                0x00000000060169ec                _P_UnArchiveWorld
                0x0000000006016ae0                _P_ArchiveThinkers
                0x0000000006016bcc                _P_UnArchiveThinkers
                0x0000000006016d18                _P_ArchiveSpecials
                0x0000000006016f8c                _P_UnArchiveSpecials
 .text          0x000000000601720c      0xd54 sh2doom-1.10/p_setup.o
                0x000000000601720c                _P_LoadVertexes
                0x00000000060172a0                _P_LoadSegs
                0x00000000060173f0                _P_LoadSubsectors
                0x0000000006017494                _P_LoadSectors
                0x0000000006017584                _P_LoadNodes
                0x000000000601768c                _P_LoadThings
                0x0000000006017764                _P_LoadLineDefs
                0x000000000601792c                _P_LoadSideDefs
                0x0000000006017a24                _P_LoadBlockMap
                0x0000000006017aec                _P_GroupLines
                0x0000000006017d08                _P_SetupLevel
                0x0000000006017f38                _P_Init
 .text          0x0000000006017f60      0x480 sh2doom-1.10/p_sight.o
                0x0000000006017f60                _P_DivlineSide
                0x0000000006017fc4                _P_InterceptVector2
                0x0000000006018048                _P_CrossSubsector
                0x0000000006018208                _P_CrossBSPNode
                0x00000000060182d8                _P_CheckSight
 .text          0x00000000060183e0      0xea0 sh2doom-1.10/p_spec.o
                0x00000000060183e0                _P_InitPicAnims
                0x00000000060184cc                _getSide
                0x0000000006018500                _getSector
                0x0000000006018538                _twoSided
                0x000000000601855c                _getNextSector
                0x0000000006018574                _P_FindLowestFloorSurrounding
                0x00000000060185b4                _P_FindHighestFloorSurrounding
                0x0000000006018600                _P_FindNextHighestFloor
                0x0000000006018680                _P_FindLowestCeilingSurrounding
                0x00000000060186cc                _P_FindHighestCeilingSurrounding
                0x0000000006018714                _P_FindSectorFromLineTag
                0x0000000006018760                _P_FindMinSurroundingLight
                0x000000000601879c                _P_CrossSpecialLine
                0x0000000006018ba0                _P_ShootSpecialLine
                0x0000000006018c0c                _P_PlayerInSpecialSector
                0x0000000006018d18                _P_UpdateSpecials
                0x0000000006018ed8                _EV_DoDonut
                0x0000000006019040                _P_SpawnSpecials
 .text          0x0000000006019280      0x610 sh2doom-1.10/p_switch.o
                0x0000000006019280                _P_InitSwitchList
                0x000000000601934c                _P_StartButton
                0x00000000060193b0                _P_ChangeSwitchTexture
                0x0000000006019514                _P_UseSpecialLine
 .text          0x0000000006019890      0x174 sh2doom-1.10/p_telept.o
                0x0000000006019890                _EV_Teleport
 .text          0x0000000006019a04      0x130 sh2doom-1.10/p_tick.o
                0x0000000006019a04                _P_InitThinkers
                0x0000000006019a10                _P_AddThinker
                0x0000000006019a24                _P_RemoveThinker
                0x0000000006019a2c                _P_RunThinkers
                0x0000000006019a7c                _P_Ticker
 .text          0x0000000006019b34      0x560 sh2doom-1.10/p_user.o
                0x0000000006019b34                _P_Thrust
                0x0000000006019b90                _P_CalcHeight
                0x0000000006019cb0                _P_MovePlayer
                0x0000000006019d58                _P_DeathThink
                0x0000000006019e38                _P_PlayerThink
 .text          0x000000000601a094      0x600 sh2doom-1.10/r_bsp.o
                0x000000000601a094                _R_ClearDrawSegs
                0x000000000601a0a4                _R_ClipSolidWallSegment
                0x000000000601a194                _R_ClipPassWallSegment
                0x000000000601a214                _R_ClearClipSegs
                0x000000000601a244                _R_AddLine
                0x000000000601a368                _R_CheckBBox
                0x000000000601a4ac                _R_Subsector
                0x000000000601a5c8                _R_RenderBSPNode
 .text          0x000000000601a694      0xebc sh2doom-1.10/r_data.o
                0x000000000601a6fc                _R_DrawColumnInCache
                0x000000000601a774                _R_GenerateComposite
                0x000000000601a8b8                _R_GenerateLookup
                0x000000000601aa74                _R_GetColumn
                0x000000000601ab00                _R_InitTextures
                0x000000000601af80                _R_InitFlats
                0x000000000601aff8                _R_InitSpriteLumps
                0x000000000601b108                _R_InitColormaps
                0x000000000601b15c                _R_InitData
                0x000000000601b1bc                _R_FlatNumForName
                0x000000000601b228                _R_CheckTextureNumForName
                0x000000000601b23c                _R_TextureNumForName
                0x000000000601b278                _R_PrecacheLevel
 .text          0x000000000601b550      0x9ac sh2doom-1.10/r_draw.o
                0x000000000601b550                _R_DrawColumn
                0x000000000601b61c                _R_DrawColumnLow
                0x000000000601b6f8                _R_DrawFuzzColumn
                0x000000000601b7e8                _R_DrawTranslatedColumn
                0x000000000601b8c0                _R_InitTranslationTables
                0x000000000601b954                _R_DrawSpan
                0x000000000601ba40                _R_DrawSpanLow
                0x000000000601bb4c                _R_InitBuffer
                0x000000000601bbc4                _R_FillBackScreen
                0x000000000601be00                _R_VideoErase
                0x000000000601be1c                _R_DrawViewBorder
 .text          0x000000000601befc      0xbbc sh2doom-1.10/r_main.o
                0x000000000601befc                _R_AddPointToBox
                0x000000000601bf20                _R_PointOnSide
                0x000000000601bfa8                _R_PointOnSegSide
                0x000000000601c05c                _R_PointToAngle
                0x000000000601c16c                _R_PointToAngle2
                0x000000000601c188                _R_PointToDist
                0x000000000601c204                _R_InitPointToAngle
                0x000000000601c208                _R_ScaleFromGlobalAngle
                0x000000000601c2c4                _R_InitTables
                0x000000000601c2c8                _R_InitTextureMapping
                0x000000000601c40c                _R_InitLightTables
                0x000000000601c4ac                _R_SetViewSize
                0x000000000601c4c8                _R_ExecuteSetViewSize
                0x000000000601c80c                _R_Init
                0x000000000601c8c8                _R_PointInSubsector
                0x000000000601c958                _R_SetupFrame
                0x000000000601ca40                _R_RenderPlayerView
 .text          0x000000000601cab8      0x82c sh2doom-1.10/r_plane.o
                0x000000000601cab8                _R_InitPlanes
                0x000000000601cabc                _R_MapPlane
                0x000000000601cca4                _R_ClearPlanes
                0x000000000601cd74                _R_FindPlane
                0x000000000601ce24                _R_CheckPlane
                0x000000000601cec0                _R_MakeSpans
                0x000000000601cfb4                _R_DrawPlanes
 .text          0x000000000601d2e4      0xee0 sh2doom-1.10/r_segs.o
                0x000000000601d2e4                _R_RenderMaskedSegRange
                0x000000000601d52c                _R_RenderSegLoop
                0x000000000601d8c8                _R_StoreWallRange
 .text          0x000000000601e1c4       0x10 sh2doom-1.10/r_sky.o
                0x000000000601e1c4                _R_InitSkyMap
 .text          0x000000000601e1d4     0x105c sh2doom-1.10/r_things.o
                0x000000000601e1d4                _R_InstallSpriteLump
                0x000000000601e33c                _R_InitSpriteDefs
                0x000000000601e59c                _R_InitSprites
                0x000000000601e5bc                _R_ClearSprites
                0x000000000601e5cc                _R_NewVisSprite
                0x000000000601e5f0                _R_DrawMaskedColumn
                0x000000000601e6f4                _R_DrawVisSprite
                0x000000000601e860                _R_ProjectSprite
                0x000000000601eb30                _R_AddSprites
                0x000000000601ebb8                _R_DrawPSprite
                0x000000000601edd8                _R_DrawPlayerSprites
                0x000000000601ee80                _R_SortVisSprites
                0x000000000601ef24                _R_DrawSprite
                0x000000000601f198                _R_DrawMasked
 .text          0x000000000601f230      0x9a4 sh2doom-1.10/s_sound.o
                0x000000000601f230                _S_PauseSound
                0x000000000601f26c                _S_ResumeSound
                0x000000000601f2a8                _S_SetMusicVolume
                0x000000000601f2fc                _S_Init
                0x000000000601f3b8                _S_SetSfxVolume
                0x000000000601f3f0                _S_StopMusic
                0x000000000601f4a0                _S_ChangeMusic
                0x000000000601f560                _S_StartMusic
                0x000000000601f56c                _S_StopChannel
                0x000000000601f5b8                _S_Start
                0x000000000601f6a4                _S_StopSound
                0x000000000601f6e0                _S_AdjustSoundParams
                0x000000000601f80c                _S_UpdateSounds
                0x000000000601f8e0                _S_getChannel
                0x000000000601f9d0                _S_StartSoundAtVolume
                0x000000000601fbc0                _S_StartSound
 .text          0x000000000601fbd4        0x0 sh2doom-1.10/sounds.o
 .text          0x000000000601fbd4      0x3fc sh2doom-1.10/st_lib.o
                0x000000000601fbd4                _STlib_init
                0x000000000601fbf4                _STlib_initNum
                0x000000000601fc0c                _STlib_drawNum
                0x000000000601fd6c                _STlib_updateNum
                0x000000000601fd84                _STlib_initPercent
                0x000000000601fda0                _STlib_updatePercent
                0x000000000601fde8                _STlib_initMultIcon
                0x000000000601fdfc                _STlib_updateMultIcon
                0x000000000601fef8                _STlib_initBinIcon
                0x000000000601ff0c                _STlib_updateBinIcon
 .text          0x000000000601ffd0     0x1528 sh2doom-1.10/st_stuff.o
                0x0000000006020068                _ST_refreshBackground
                0x0000000006020084                _ST_Responder
                0x00000000060204a0                _ST_calcPainOffset
                0x00000000060204f8                _ST_updateFaceWidget
                0x0000000006020968                _ST_updateWidgets
                0x0000000006020a68                _ST_Ticker
                0x0000000006020aa8                _ST_doPaletteStuff
                0x0000000006020b70                _ST_drawWidgets
                0x0000000006020c7c                _ST_doRefresh
                0x0000000006020cb0                _ST_diffDraw
                0x0000000006020cbc                _ST_Drawer
                0x0000000006020d18                _ST_loadGraphics
                0x0000000006020efc                _ST_loadData
                0x0000000006020f20                _ST_unloadGraphics
                0x00000000060210e0                _ST_unloadData
                0x00000000060210ec                _ST_initData
                0x000000000602117c                _ST_createWidgets
                0x0000000006021448                _ST_Start
                0x0000000006021498                _ST_Stop
                0x00000000060214b4                _ST_Init
 .text          0x00000000060214f8       0x34 sh2doom-1.10/tables.o
                0x00000000060214f8                _SlopeDiv
 .text          0x000000000602152c      0x50c sh2doom-1.10/v_video.o
                0x000000000602152c                _V_MarkRect
                0x0000000006021578                _V_CopyRect
                0x0000000006021650                _V_DrawPatch
                0x0000000006021768                _V_DrawPatchFlipped
                0x000000000602189c                _V_DrawPatchDirect
                0x00000000060218a8                _V_DrawBlock
                0x0000000006021958                _V_GetBlock
                0x00000000060219f8                _V_Init
 .text          0x0000000006021a38      0x7e8 sh2doom-1.10/w_wad.o
                0x0000000006021a38                _strupr
                0x0000000006021a64                _filelength
                0x0000000006021a68                _ExtractFileBase
                0x0000000006021b30                _W_AddFile
                0x0000000006021ca4                _W_Reload
                0x0000000006021d74                _W_InitMultipleFiles
                0x0000000006021e2c                _W_InitFile
                0x0000000006021e48                _W_NumLumps
                0x0000000006021e54                _W_CheckNumForName
                0x0000000006021f08                _W_GetNumForName
                0x0000000006021f40                _W_LumpLength
                0x0000000006021f94                _W_ReadLump
                0x0000000006022020                _W_CacheLumpNum
                0x0000000006022110                _W_CacheLumpName
                0x0000000006022130                _W_Profile
 .text          0x0000000006022220     0x2618 sh2doom-1.10/wi_stuff.o
                0x000000000602240c                _WI_slamBackground
                0x000000000602243c                _WI_drawLF
                0x00000000060224ec                _WI_drawEL
                0x00000000060225a0                _WI_drawOnLnode
                0x00000000060226b4                _WI_initAnimatedBack
                0x00000000060226e0                _WI_updateAnimatedBack
                0x000000000602270c                _WI_drawAnimatedBack
                0x0000000006022710                _WI_drawNum
                0x0000000006022890                _WI_drawPercent
                0x00000000060228a4                _WI_drawTime
                0x0000000006022980                _WI_initNoState
                0x00000000060229a0                _WI_initShowNextLoc
                0x00000000060229ec                _WI_updateShowNextLoc
                0x0000000006022a8c                _WI_drawShowNextLoc
                0x0000000006022b6c                _WI_drawNoState
                0x0000000006022b80                _WI_fragSum
                0x0000000006022bcc                _WI_initDeathmatchStats
                0x0000000006022c74                _WI_updateDeathmatchStats
                0x0000000006022ebc                _WI_drawDeathmatchStats
                0x00000000060230a8                _WI_initNetgameStats
                0x000000000602318c                _WI_updateNetgameStats
                0x00000000060234e4                _WI_drawNetgameStats
                0x000000000602374c                _WI_initStats
                0x00000000060237c8                _WI_updateStats
                0x0000000006023af0                _WI_drawStats
                0x0000000006023c1c                _WI_checkForAccelerate
                0x0000000006023c8c                _WI_loadData
                0x000000000602409c                _WI_unloadData
                0x0000000006024604                _WI_End
                0x0000000006024610                _WI_updateNoState
                0x0000000006024660                _WI_Ticker
                0x0000000006024714                _WI_Drawer
                0x0000000006024778                _WI_initVariables
                0x00000000060247ec                _WI_Start
 .text          0x0000000006024838      0x45c sh2doom-1.10/z_zone.o
                0x0000000006024838                _Z_ClearZone
                0x000000000602485c                _Z_Init
                0x00000000060248a0                _Z_Free
                0x0000000006024934                _Z_Malloc
                0x0000000006024a40                _Z_FreeTags
                0x0000000006024a9c                _Z_DumpHeap
                0x0000000006024b68                _Z_FileDumpHeap
                0x0000000006024b80                _Z_CheckHeap
                0x0000000006024c08                _Z_ChangeTag2
                0x0000000006024c60                _Z_FreeMemory
 .text          0x0000000006024c94       0x52 d:/projects/saturn/yaul/opt/x-tools/sh2eb-elf/bin/../lib/gcc/sh2eb-elf/8.3.0\libgcc.a(_ashiftrt.o)
                0x0000000006024c94                ___ashiftrt_r4_31
                0x0000000006024c94                ___ashiftrt_r4_32
                0x0000000006024c9a                ___ashiftrt_r4_30
                0x0000000006024c9c                ___ashiftrt_r4_29
                0x0000000006024c9e                ___ashiftrt_r4_28
                0x0000000006024ca0                ___ashiftrt_r4_27
                0x0000000006024ca2                ___ashiftrt_r4_26
                0x0000000006024ca4                ___ashiftrt_r4_25
                0x0000000006024ca6                ___ashiftrt_r4_24
                0x0000000006024cae                ___ashiftrt_r4_23
                0x0000000006024cb0                ___ashiftrt_r4_22
                0x0000000006024cb2                ___ashiftrt_r4_21
                0x0000000006024cb4                ___ashiftrt_r4_20
                0x0000000006024cb6                ___ashiftrt_r4_19
                0x0000000006024cb8                ___ashiftrt_r4_18
                0x0000000006024cba                ___ashiftrt_r4_17
                0x0000000006024cbc                ___ashiftrt_r4_16
                0x0000000006024cc2                ___ashiftrt_r4_15
                0x0000000006024cc4                ___ashiftrt_r4_14
                0x0000000006024cc6                ___ashiftrt_r4_13
                0x0000000006024cc8                ___ashiftrt_r4_12
                0x0000000006024cca                ___ashiftrt_r4_11
                0x0000000006024ccc                ___ashiftrt_r4_10
                0x0000000006024cce                ___ashiftrt_r4_9
                0x0000000006024cd0                ___ashiftrt_r4_8
                0x0000000006024cd2                ___ashiftrt_r4_7
                0x0000000006024cd4                ___ashiftrt_r4_6
                0x0000000006024cd6                ___ashiftrt_r4_5
                0x0000000006024cd8                ___ashiftrt_r4_4
                0x0000000006024cda                ___ashiftrt_r4_3
                0x0000000006024cdc                ___ashiftrt_r4_2
                0x0000000006024cde                ___ashiftrt_r4_1
                0x0000000006024ce2                ___ashiftrt_r4_0
 *fill*         0x0000000006024ce6        0x2 
 .text          0x0000000006024ce8       0x80 d:/projects/saturn/yaul/opt/x-tools/sh2eb-elf/bin/../lib/gcc/sh2eb-elf/8.3.0\libgcc.a(_ashiftrt_n.o)
                0x0000000006024ce8                ___ashrsi3
 .text          0x0000000006024d68       0xbc d:/projects/saturn/yaul/opt/x-tools/sh2eb-elf/bin/../lib/gcc/sh2eb-elf/8.3.0\libgcc.a(_ashiftlt.o)
                0x0000000006024d68                ___ashlsi3
                0x0000000006024d6c                ___ashlsi3_r0
 .text          0x0000000006024e24       0x78 d:/projects/saturn/yaul/opt/x-tools/sh2eb-elf/bin/../lib/gcc/sh2eb-elf/8.3.0\libgcc.a(_movmem.o)
                0x0000000006024e24                ___movmem
                0x0000000006024e24                ___movstr
                0x0000000006024e58                ___movstrSI64
                0x0000000006024e58                ___movmemSI64
                0x0000000006024e5c                ___movstrSI60
                0x0000000006024e5c                ___movmemSI60
                0x0000000006024e60                ___movstrSI56
                0x0000000006024e60                ___movmemSI56
                0x0000000006024e64                ___movstrSI52
                0x0000000006024e64                ___movmemSI52
                0x0000000006024e68                ___movstrSI48
                0x0000000006024e68                ___movmemSI48
                0x0000000006024e6c                ___movmemSI44
                0x0000000006024e6c                ___movstrSI44
                0x0000000006024e70                ___movstrSI40
                0x0000000006024e70                ___movmemSI40
                0x0000000006024e74                ___movmemSI36
                0x0000000006024e74                ___movstrSI36
                0x0000000006024e78                ___movmemSI32
                0x0000000006024e78                ___movstrSI32
                0x0000000006024e7c                ___movstrSI28
                0x0000000006024e7c                ___movmemSI28
                0x0000000006024e80                ___movmemSI24
                0x0000000006024e80                ___movstrSI24
                0x0000000006024e84                ___movstrSI20
                0x0000000006024e84                ___movmemSI20
                0x0000000006024e88                ___movstrSI16
                0x0000000006024e88                ___movmemSI16
                0x0000000006024e8c                ___movstrSI12
                0x0000000006024e8c                ___movmemSI12
                0x0000000006024e90                ___movmemSI8
                0x0000000006024e90                ___movstrSI8
                0x0000000006024e94                ___movmemSI4
                0x0000000006024e94                ___movstrSI4
 .text          0x0000000006024e9c       0xa0 d:/projects/saturn/yaul/opt/x-tools/sh2eb-elf/bin/../lib/gcc/sh2eb-elf/8.3.0\libgcc.a(_sdivsi3.o)
                0x0000000006024e9c                ___sdivsi3
 .text          0x0000000006024f3c       0x6c d:/projects/saturn/yaul/opt/x-tools/sh2eb-elf/bin/../lib/gcc/sh2eb-elf/8.3.0\libgcc.a(_udivsi3.o)
                0x0000000006024f5e                ___udivsi3
 .text          0x0000000006024fa8      0x1e0 d:/projects/saturn/yaul/opt/x-tools/sh2eb-elf/bin/../lib/gcc/sh2eb-elf/8.3.0\libgcc.a(_mul_df.o)
                0x0000000006024fa8                ___muldf3
 .text          0x0000000006025188      0x11c d:/projects/saturn/yaul/opt/x-tools/sh2eb-elf/bin/../lib/gcc/sh2eb-elf/8.3.0\libgcc.a(_div_df.o)
                0x0000000006025188                ___divdf3
 .text          0x00000000060252a4       0x50 d:/projects/saturn/yaul/opt/x-tools/sh2eb-elf/bin/../lib/gcc/sh2eb-elf/8.3.0\libgcc.a(_ge_df.o)
                0x00000000060252a4                ___gedf2
 .text          0x00000000060252f4       0x50 d:/projects/saturn/yaul/opt/x-tools/sh2eb-elf/bin/../lib/gcc/sh2eb-elf/8.3.0\libgcc.a(_lt_df.o)
                0x00000000060252f4                ___ltdf2
 .text          0x0000000006025344       0x74 d:/projects/saturn/yaul/opt/x-tools/sh2eb-elf/bin/../lib/gcc/sh2eb-elf/8.3.0\libgcc.a(_si_to_df.o)
                0x0000000006025344                ___floatsidf
 .text          0x00000000060253b8       0x68 d:/projects/saturn/yaul/opt/x-tools/sh2eb-elf/bin/../lib/gcc/sh2eb-elf/8.3.0\libgcc.a(_df_to_si.o)
                0x00000000060253b8                ___fixdfsi
 .text          0x0000000006025420        0x0 d:/projects/saturn/yaul/opt/x-tools/sh2eb-elf/bin/../lib/gcc/sh2eb-elf/8.3.0\libgcc.a(_thenan_df.o)
 .text          0x0000000006025420       0x4c d:/projects/saturn/yaul/opt/x-tools/sh2eb-elf/bin/../lib/gcc/sh2eb-elf/8.3.0\libgcc.a(_lshrdi3.o)
                0x0000000006025420                ___lshrdi3
 .text          0x000000000602546c       0x50 d:/projects/saturn/yaul/opt/x-tools/sh2eb-elf/bin/../lib/gcc/sh2eb-elf/8.3.0\libgcc.a(_ashldi3.o)
                0x000000000602546c                ___ashldi3
 .text          0x00000000060254bc       0x48 d:/projects/saturn/yaul/opt/x-tools/sh2eb-elf/bin/../lib/gcc/sh2eb-elf/8.3.0\libgcc.a(_clzsi2.o)
                0x00000000060254bc                ___clzsi2
 .text          0x0000000006025504      0x158 d:/projects/saturn/yaul/opt/x-tools/sh2eb-elf/bin/../lib/gcc/sh2eb-elf/8.3.0\libgcc.a(_pack_df.o)
                0x0000000006025504                ___pack_d
 .text          0x000000000602565c       0xc4 d:/projects/saturn/yaul/opt/x-tools/sh2eb-elf/bin/../lib/gcc/sh2eb-elf/8.3.0\libgcc.a(_unpack_df.o)
                0x000000000602565c                ___unpack_d
 .text          0x0000000006025720       0xb0 d:/projects/saturn/yaul/opt/x-tools/sh2eb-elf/bin/../lib/gcc/sh2eb-elf/8.3.0\libgcc.a(_fpcmp_parts_df.o)
                0x0000000006025720                ___fpcmp_parts_d
 .text          0x00000000060257d0       0xbc d:/projects/saturn/yaul/opt/x-tools/sh2eb-elf/bin/../lib/gcc/sh2eb-elf/8.3.0\libgcc.a(_lshiftrt.o)
                0x00000000060257d0                ___lshrsi3
                0x00000000060257d4                ___lshrsi3_r0
 .text          0x000000000602588c        0x0 d:/projects/saturn/yaul/opt/x-tools/sh2eb-elf/bin/../lib/gcc/sh2eb-elf/8.3.0\libgcc.a(_clz.o)
 .text          0x000000000602588c        0x0 d:/projects/saturn/yaul/opt/x-tools/sh2eb-elf/bin/../lib/gcc/sh2eb-elf/8.3.0/../../../../sh2eb-elf/lib\libyaul.a(internal.o)
 .text          0x000000000602588c      0x184 d:/projects/saturn/yaul/opt/x-tools/sh2eb-elf/bin/../lib/gcc/sh2eb-elf/8.3.0/../../../../sh2eb-elf/lib\libyaul.a(dbgio.o)
                0x000000000602588c                _dbgio_dev_deinit
                0x00000000060258cc                _dbgio_dev_init
                0x000000000602595c                _dbgio_dev_default_init
                0x0000000006025978                _dbgio_init
                0x000000000602598c                _dbgio_buffer
                0x00000000060259e0                _dbgio_flush
 .text          0x0000000006025a10       0x10 d:/projects/saturn/yaul/opt/x-tools/sh2eb-elf/bin/../lib/gcc/sh2eb-elf/8.3.0/../../../../sh2eb-elf/lib\libyaul.a(null.o)
 .text          0x0000000006025a20      0x9b8 d:/projects/saturn/yaul/opt/x-tools/sh2eb-elf/bin/../lib/gcc/sh2eb-elf/8.3.0/../../../../sh2eb-elf/lib\libyaul.a(vdp2.o)
 .text          0x00000000060263d8      0x1a0 d:/projects/saturn/yaul/opt/x-tools/sh2eb-elf/bin/../lib/gcc/sh2eb-elf/8.3.0/../../../../sh2eb-elf/lib\libyaul.a(usb-cart.o)
 .text          0x0000000006026578      0x5f0 d:/projects/saturn/yaul/opt/x-tools/sh2eb-elf/bin/../lib/gcc/sh2eb-elf/8.3.0/../../../../sh2eb-elf/lib\libyaul.a(cons.o)
                0x000000000602696c                _cons_init
                0x0000000006026a70                _cons_buffer
 .text          0x0000000006026b68      0x5a0 d:/projects/saturn/yaul/opt/x-tools/sh2eb-elf/bin/../lib/gcc/sh2eb-elf/8.3.0/../../../../sh2eb-elf/lib\libyaul.a(dma-queue.o)
                0x0000000006026c6c                _dma_queue_init
                0x0000000006026d40                _dma_queue_enqueue
                0x0000000006026e70                _dma_queue_flush_wait
                0x0000000006026e88                _dma_queue_tag_clear
                0x0000000006026f70                _dma_queue_clear
                0x0000000006026f8c                _dma_queue_flush
                0x0000000006027080                _dma_queue_count_get
                0x0000000006027104                _dma_queue_capacity_get
 .text          0x0000000006027108      0xd88 d:/projects/saturn/yaul/opt/x-tools/sh2eb-elf/bin/../lib/gcc/sh2eb-elf/8.3.0/../../../../sh2eb-elf/lib\libyaul.a(tlsf.o)
                0x0000000006027718                _tlsf_check
                0x0000000006027890                _tlsf_walk_pool
                0x00000000060278e8                _tlsf_block_size
                0x00000000060278fa                _tlsf_check_pool
                0x0000000006027920                _tlsf_size
                0x0000000006027928                _tlsf_align_size
                0x000000000602792c                _tlsf_block_size_min
                0x0000000006027930                _tlsf_block_size_max
                0x000000000602793c                _tlsf_pool_overhead
                0x0000000006027940                _tlsf_alloc_overhead
                0x0000000006027944                _tlsf_add_pool
                0x0000000006027998                _tlsf_remove_pool
                0x0000000006027a38                _tlsf_create
                0x0000000006027a72                _tlsf_create_with_pool
                0x0000000006027aac                _tlsf_destroy
                0x0000000006027ab0                _tlsf_get_pool
                0x0000000006027ab8                _tlsf_malloc
                0x0000000006027b2c                _tlsf_memalign
                0x0000000006027c4c                _tlsf_free
                0x0000000006027d2c                _tlsf_realloc
 .text          0x0000000006027e90      0x118 d:/projects/saturn/yaul/opt/x-tools/sh2eb-elf/bin/../lib/gcc/sh2eb-elf/8.3.0/../../../../sh2eb-elf/lib\libyaul.a(ctype.o)
                0x0000000006027e90                _isalnum
                0x0000000006027ea0                _isalpha
                0x0000000006027eb0                _isascii
                0x0000000006027eb8                _isblank
                0x0000000006027ed0                _iscntrl
                0x0000000006027ee0                _isdigit
                0x0000000006027ef0                _isgraph
                0x0000000006027f00                _islower
                0x0000000006027f14                _isprint
                0x0000000006027f24                _ispunct
                0x0000000006027f34                _isspace
                0x0000000006027f44                _isupper
                0x0000000006027f58                _isxdigit
                0x0000000006027f68                _tolower
                0x0000000006027f88                _toupper
 .text          0x0000000006027fa8      0x2ee d:/projects/saturn/yaul/opt/x-tools/sh2eb-elf/bin/../lib/gcc/sh2eb-elf/8.3.0/../../../../sh2eb-elf/lib\libyaul.a(memcpy.o)
                0x0000000006027fa8                _memcpy
 *fill*         0x0000000006028296        0x2 
 .text          0x0000000006028298       0xcc d:/projects/saturn/yaul/opt/x-tools/sh2eb-elf/bin/../lib/gcc/sh2eb-elf/8.3.0/../../../../sh2eb-elf/lib\libyaul.a(memset.o)
                0x0000000006028298                _memset
 .text          0x0000000006028364       0x4c d:/projects/saturn/yaul/opt/x-tools/sh2eb-elf/bin/../lib/gcc/sh2eb-elf/8.3.0/../../../../sh2eb-elf/lib\libyaul.a(strcasestr.o)
                0x0000000006028364                _strcasestr
 .text          0x00000000060283b0       0x2c d:/projects/saturn/yaul/opt/x-tools/sh2eb-elf/bin/../lib/gcc/sh2eb-elf/8.3.0/../../../../sh2eb-elf/lib\libyaul.a(strcat.o)
                0x00000000060283b0                _strcat
 .text          0x00000000060283dc       0x14 d:/projects/saturn/yaul/opt/x-tools/sh2eb-elf/bin/../lib/gcc/sh2eb-elf/8.3.0/../../../../sh2eb-elf/lib\libyaul.a(strcmp.o)
                0x00000000060283dc                _strcmp
 .text          0x00000000060283f0       0x18 d:/projects/saturn/yaul/opt/x-tools/sh2eb-elf/bin/../lib/gcc/sh2eb-elf/8.3.0/../../../../sh2eb-elf/lib\libyaul.a(strcpy.o)
                0x00000000060283f0                _strcpy
 .text          0x0000000006028408       0x44 d:/projects/saturn/yaul/opt/x-tools/sh2eb-elf/bin/../lib/gcc/sh2eb-elf/8.3.0/../../../../sh2eb-elf/lib\libyaul.a(strlen.o)
                0x0000000006028408                _strlen
 .text          0x000000000602844c       0x74 d:/projects/saturn/yaul/opt/x-tools/sh2eb-elf/bin/../lib/gcc/sh2eb-elf/8.3.0/../../../../sh2eb-elf/lib\libyaul.a(strncasecmp.o)
                0x000000000602844c                _strncasecmp
 .text          0x00000000060284c0       0x2e d:/projects/saturn/yaul/opt/x-tools/sh2eb-elf/bin/../lib/gcc/sh2eb-elf/8.3.0/../../../../sh2eb-elf/lib\libyaul.a(strncmp.o)
                0x00000000060284c0                _strncmp
 *fill*         0x00000000060284ee        0x2 
 .text          0x00000000060284f0       0x18 d:/projects/saturn/yaul/opt/x-tools/sh2eb-elf/bin/../lib/gcc/sh2eb-elf/8.3.0/../../../../sh2eb-elf/lib\libyaul.a(strncpy.o)
                0x00000000060284f0                _strncpy
 .text          0x0000000006028508      0x4a8 d:/projects/saturn/yaul/opt/x-tools/sh2eb-elf/bin/../lib/gcc/sh2eb-elf/8.3.0/../../../../sh2eb-elf/lib\libyaul.a(snprintf.o)
                0x000000000602854c                _sprintf
 .text          0x00000000060289b0        0xa d:/projects/saturn/yaul/opt/x-tools/sh2eb-elf/bin/../lib/gcc/sh2eb-elf/8.3.0/../../../../sh2eb-elf/lib\libyaul.a(abort.o)
                0x00000000060289b0                _abort
 .text          0x00000000060289ba        0xc d:/projects/saturn/yaul/opt/x-tools/sh2eb-elf/bin/../lib/gcc/sh2eb-elf/8.3.0/../../../../sh2eb-elf/lib\libyaul.a(abs.o)
                0x00000000060289ba                _abs
 *fill*         0x00000000060289c6        0x2 
 .text          0x00000000060289c8       0xdc d:/projects/saturn/yaul/opt/x-tools/sh2eb-elf/bin/../lib/gcc/sh2eb-elf/8.3.0/../../../../sh2eb-elf/lib\libyaul.a(assert.o)
                0x00000000060289c8                __assert
 .text          0x0000000006028aa4       0x18 d:/projects/saturn/yaul/opt/x-tools/sh2eb-elf/bin/../lib/gcc/sh2eb-elf/8.3.0/../../../../sh2eb-elf/lib\libyaul.a(free.o)
                0x0000000006028aa4                _free
 .text          0x0000000006028abc       0x14 d:/projects/saturn/yaul/opt/x-tools/sh2eb-elf/bin/../lib/gcc/sh2eb-elf/8.3.0/../../../../sh2eb-elf/lib\libyaul.a(malloc.o)
                0x0000000006028abc                _malloc
 .text          0x0000000006028ad0      0x124 d:/projects/saturn/yaul/opt/x-tools/sh2eb-elf/bin/../lib/gcc/sh2eb-elf/8.3.0/../../../../sh2eb-elf/lib\libyaul.a(dram-cart.o)
                0x0000000006028ad0                _dram_cart_init
                0x0000000006028bb8                _dram_cart_area_get
                0x0000000006028bc4                _dram_cart_id_get
                0x0000000006028bd0                _dram_cart_size_get
 .text          0x0000000006028bf4      0x1dc d:/projects/saturn/yaul/opt/x-tools/sh2eb-elf/bin/../lib/gcc/sh2eb-elf/8.3.0/../../../../sh2eb-elf/lib\libyaul.a(vdp_init.o)
                0x0000000006028c4c                _vdp_init
 .text          0x0000000006028dd0      0x720 d:/projects/saturn/yaul/opt/x-tools/sh2eb-elf/bin/../lib/gcc/sh2eb-elf/8.3.0/../../../../sh2eb-elf/lib\libyaul.a(vdp_sync.o)
                0x0000000006029028                _vdp1_sync_drawing
                0x0000000006029044                _vdp1_sync_draw_wait
                0x000000000602909c                _vdp_sync
                0x00000000060291b0                _vdp1_sync_draw
                0x0000000006029274                _vdp1_sync_last_command_get
                0x0000000006029280                _vdp2_sync_commit
                0x0000000006029344                _vdp_sync_vblank_in_set
                0x0000000006029358                _vdp_sync_vblank_out_set
                0x000000000602936c                _vdp_sync_init
                0x00000000060294a8                _vdp_sync_user_callback_add
                0x00000000060294c8                _vdp_sync_user_callback_remove
                0x00000000060294dc                _vdp_sync_user_callback_clear
 .text          0x00000000060294f0        0x0 d:/projects/saturn/yaul/opt/x-tools/sh2eb-elf/bin/../lib/gcc/sh2eb-elf/8.3.0/../../../../sh2eb-elf/lib\libyaul.a(vdp-internal.o)
 .text          0x00000000060294f0       0xe4 d:/projects/saturn/yaul/opt/x-tools/sh2eb-elf/bin/../lib/gcc/sh2eb-elf/8.3.0/../../../../sh2eb-elf/lib\libyaul.a(vdp1_env.o)
                0x00000000060294f0                _vdp1_env_set
                0x00000000060295c4                _vdp1_env_default_set
 .text          0x00000000060295d4       0xd4 d:/projects/saturn/yaul/opt/x-tools/sh2eb-elf/bin/../lib/gcc/sh2eb-elf/8.3.0/../../../../sh2eb-elf/lib\libyaul.a(vdp1_vram.o)
                0x00000000060295d4                _vdp1_vram_partitions_set
                0x0000000006029644                _vdp1_vram_texture_base_get
                0x0000000006029650                _vdp1_vram_texture_size_get
                0x0000000006029660                _vdp1_vram_gouraud_base_get
                0x000000000602966c                _vdp1_vram_gouraud_size_get
                0x000000000602967c                _vdp1_vram_clut_size_get
                0x0000000006029690                _vdp1_vram_clut_base_get
                0x000000000602969c                _vdp1_vram_remaining_get
 .text          0x00000000060296a8       0xc4 d:/projects/saturn/yaul/opt/x-tools/sh2eb-elf/bin/../lib/gcc/sh2eb-elf/8.3.0/../../../../sh2eb-elf/lib\libyaul.a(vdp2_cram.o)
                0x00000000060296a8                _vdp2_cram_mode_set
                0x00000000060296d0                _vdp2_cram_offset_set
 .text          0x000000000602976c      0xa34 d:/projects/saturn/yaul/opt/x-tools/sh2eb-elf/bin/../lib/gcc/sh2eb-elf/8.3.0/../../../../sh2eb-elf/lib\libyaul.a(vdp2_scrn.o)
                0x0000000006029898                _vdp2_scrn_cell_format_set
                0x0000000006029e50                _vdp2_scrn_bitmap_format_set
 .text          0x000000000602a1a0       0x80 d:/projects/saturn/yaul/opt/x-tools/sh2eb-elf/bin/../lib/gcc/sh2eb-elf/8.3.0/../../../../sh2eb-elf/lib\libyaul.a(vdp2_scrn_back_screen.o)
                0x000000000602a1a0                _vdp2_scrn_back_screen_color_set
                0x000000000602a1dc                _vdp2_scrn_back_screen_buffer_set
 .text          0x000000000602a220       0x38 d:/projects/saturn/yaul/opt/x-tools/sh2eb-elf/bin/../lib/gcc/sh2eb-elf/8.3.0/../../../../sh2eb-elf/lib\libyaul.a(vdp2_scrn_display.o)
                0x000000000602a220                _vdp2_scrn_display_set
                0x000000000602a248                _vdp2_scrn_display_unset
                0x000000000602a24c                _vdp2_scrn_display_clear
 .text          0x000000000602a258       0xa4 d:/projects/saturn/yaul/opt/x-tools/sh2eb-elf/bin/../lib/gcc/sh2eb-elf/8.3.0/../../../../sh2eb-elf/lib\libyaul.a(vdp2_scrn_priority.o)
                0x000000000602a258                _vdp2_scrn_priority_set
                0x000000000602a2c0                _vdp2_scrn_priority_get
 .text          0x000000000602a2fc       0xbc d:/projects/saturn/yaul/opt/x-tools/sh2eb-elf/bin/../lib/gcc/sh2eb-elf/8.3.0/../../../../sh2eb-elf/lib\libyaul.a(vdp2_scrn_reduction.o)
                0x000000000602a2fc                _vdp2_scrn_reduction_set
                0x000000000602a330                _vdp2_scrn_reduction_x_set
                0x000000000602a374                _vdp2_scrn_reduction_y_set
 .text          0x000000000602a3b8      0x2d8 d:/projects/saturn/yaul/opt/x-tools/sh2eb-elf/bin/../lib/gcc/sh2eb-elf/8.3.0/../../../../sh2eb-elf/lib\libyaul.a(vdp2_scrn_scroll.o)
                0x000000000602a416                _vdp2_scrn_scroll_x_set
                0x000000000602a494                _vdp2_scrn_scroll_y_set
                0x000000000602a520                _vdp2_scrn_scroll_x_update
                0x000000000602a5dc                _vdp2_scrn_scroll_y_update
 .text          0x000000000602a690      0x15c d:/projects/saturn/yaul/opt/x-tools/sh2eb-elf/bin/../lib/gcc/sh2eb-elf/8.3.0/../../../../sh2eb-elf/lib\libyaul.a(vdp2_tvmd.o)
                0x000000000602a690                _vdp2_tvmd_display_clear
                0x000000000602a6a4                _vdp2_tvmd_display_set
                0x000000000602a6b8                _vdp2_tvmd_display_res_get
                0x000000000602a6c8                _vdp2_tvmd_display_res_set
 .text          0x000000000602a7ec      0x170 d:/projects/saturn/yaul/opt/x-tools/sh2eb-elf/bin/../lib/gcc/sh2eb-elf/8.3.0/../../../../sh2eb-elf/lib\libyaul.a(vdp2_vram.o)
                0x000000000602a7ec                _vdp2_vram_control_set
                0x000000000602a858                _vdp2_vram_cycp_set
                0x000000000602a8e4                _vdp2_vram_cycp_clear
                0x000000000602a8f8                _vdp2_vram_cycp_bank_get
                0x000000000602a91c                _vdp2_vram_cycp_bank_set
                0x000000000602a948                _vdp2_vram_cycp_bank_clear
 .text          0x000000000602a95c        0x0 d:/projects/saturn/yaul/opt/x-tools/sh2eb-elf/bin/../lib/gcc/sh2eb-elf/8.3.0/../../../../sh2eb-elf/lib\libyaul.a(cpu_cache.o)
 .text          0x000000000602a95c      0x328 d:/projects/saturn/yaul/opt/x-tools/sh2eb-elf/bin/../lib/gcc/sh2eb-elf/8.3.0/../../../../sh2eb-elf/lib\libyaul.a(cpu_dmac.o)
                0x000000000602aa24                _cpu_dmac_status_get
                0x000000000602aaa8                _cpu_dmac_channel_config_set
                0x000000000602ab9c                _cpu_dmac_channel_wait
                0x000000000602abca                _cpu_dmac_init
 *fill*         0x000000000602ac84        0xc 
 .text          0x000000000602ac90      0x2e0 d:/projects/saturn/yaul/opt/x-tools/sh2eb-elf/bin/../lib/gcc/sh2eb-elf/8.3.0/../../../../sh2eb-elf/lib\libyaul.a(cpu_dual.o)
                0x000000000602adc4                _cpu_dual_master_set
                0x000000000602adfc                _cpu_dual_init
                0x000000000602aec8                _cpu_dual_slave_set
                0x000000000602aee0                _cpu_dual_executor_get
 .text          0x000000000602af70      0x338 d:/projects/saturn/yaul/opt/x-tools/sh2eb-elf/bin/../lib/gcc/sh2eb-elf/8.3.0/../../../../sh2eb-elf/lib\libyaul.a(cpu_frt.o)
                0x000000000602b088                _cpu_frt_oca_set
                0x000000000602b114                _cpu_frt_ocb_set
                0x000000000602b19c                _cpu_frt_ovi_set
                0x000000000602b1e4                _cpu_frt_init
 *fill*         0x000000000602b2a8        0x8 
 .text          0x000000000602b2b0      0x5a0 d:/projects/saturn/yaul/opt/x-tools/sh2eb-elf/bin/../lib/gcc/sh2eb-elf/8.3.0/../../../../sh2eb-elf/lib\libyaul.a(cpu_init.o)
                0x000000000602b73c                _cpu_init
 .text          0x000000000602b850      0x144 d:/projects/saturn/yaul/opt/x-tools/sh2eb-elf/bin/../lib/gcc/sh2eb-elf/8.3.0/../../../../sh2eb-elf/lib\libyaul.a(cpu_wdt.o)
                0x000000000602b8d4                _cpu_wdt_init
                0x000000000602b940                _cpu_wdt_timer_mode_set
 .text          0x000000000602b994        0x4 d:/projects/saturn/yaul/opt/x-tools/sh2eb-elf/bin/../lib/gcc/sh2eb-elf/8.3.0/../../../../sh2eb-elf/lib\libyaul.a(smpc_init.o)
                0x000000000602b994                _smpc_init
 .text          0x000000000602b998      0x5e8 d:/projects/saturn/yaul/opt/x-tools/sh2eb-elf/bin/../lib/gcc/sh2eb-elf/8.3.0/../../../../sh2eb-elf/lib\libyaul.a(smpc_peripheral_init.o)
                0x000000000602bd18                _smpc_peripheral_init
                0x000000000602bda8                _smpc_peripheral_intback_issue
                0x000000000602bddc                _smpc_peripheral_process
 .text          0x000000000602bf80       0x38 d:/projects/saturn/yaul/opt/x-tools/sh2eb-elf/bin/../lib/gcc/sh2eb-elf/8.3.0/../../../../sh2eb-elf/lib\libyaul.a(scu_init.o)
                0x000000000602bf80                _scu_init
 .text          0x000000000602bfb8      0x2e4 d:/projects/saturn/yaul/opt/x-tools/sh2eb-elf/bin/../lib/gcc/sh2eb-elf/8.3.0/../../../../sh2eb-elf/lib\libyaul.a(scu_dma.o)
                0x000000000602bfb8                _scu_dma_init
                0x000000000602c01c                _scu_dma_config_buffer
                0x000000000602c114                _scu_dma_config_set
                0x000000000602c268                _scu_dma_level_unused_get
 .text          0x000000000602c29c      0x3d8 d:/projects/saturn/yaul/opt/x-tools/sh2eb-elf/bin/../lib/gcc/sh2eb-elf/8.3.0/../../../../sh2eb-elf/lib\libyaul.a(scu_dsp.o)
                0x000000000602c2f8                _scu_dsp_end_set
                0x000000000602c33c                _scu_dsp_program_pc_set
                0x000000000602c3a4                _scu_dsp_program_load
                0x000000000602c3c0                _scu_dsp_program_start
                0x000000000602c3e4                _scu_dsp_program_stop
                0x000000000602c404                _scu_dsp_program_step
                0x000000000602c470                _scu_dsp_program_end
                0x000000000602c48c                _scu_dsp_program_end_wait
                0x000000000602c4b0                _scu_dsp_program_clear
                0x000000000602c504                _scu_dsp_init
                0x000000000602c558                _scu_dsp_dma_busy
                0x000000000602c574                _scu_dsp_dma_wait
                0x000000000602c58c                _scu_dsp_data_read
                0x000000000602c5cc                _scu_dsp_data_write
                0x000000000602c60c                _scu_dsp_status_get
 .text          0x000000000602c674       0xac d:/projects/saturn/yaul/opt/x-tools/sh2eb-elf/bin/../lib/gcc/sh2eb-elf/8.3.0/../../../../sh2eb-elf/lib\libyaul.a(scu_timer.o)
                0x000000000602c674                _scu_timer_t0_set
                0x000000000602c6b0                _scu_timer_t1_set
                0x000000000602c6ec                _scu_timer_init
 .text          0x000000000602c720       0x44 d:/projects/saturn/yaul/opt/x-tools/sh2eb-elf/bin/../lib/gcc/sh2eb-elf/8.3.0/../../../../sh2eb-elf/lib\libyaul.a(internal.o)
                0x000000000602c720                __internal_malloc
                0x000000000602c734                __internal_realloc
                0x000000000602c74c                __internal_free
 .text          0x000000000602c764      0x1f0 d:/projects/saturn/yaul/opt/x-tools/sh2eb-elf/bin/../lib/gcc/sh2eb-elf/8.3.0/../../../../sh2eb-elf/lib\libyaul.a(internal_reset.o)
                0x000000000602c770                __internal_reset
 .text          0x000000000602c954      0x404 d:/projects/saturn/yaul/opt/x-tools/sh2eb-elf/bin/../lib/gcc/sh2eb-elf/8.3.0/../../../../sh2eb-elf/lib\libyaul.a(callback-list.o)
                0x000000000602c958                _callback_list_free
                0x000000000602c9b0                _callback_list_init
                0x000000000602ca0c                _callback_list_callback_remove
                0x000000000602ca48                _callback_init
                0x000000000602caa0                _callback_list_process
                0x000000000602cb78                _callback_list_clear
                0x000000000602cbfc                _callback_list_alloc
                0x000000000602cc8c                _callback_set
                0x000000000602ccf0                _callback_list_callback_add
 .text          0x000000000602cd58      0x124 d:/projects/saturn/yaul/opt/x-tools/sh2eb-elf/bin/../lib/gcc/sh2eb-elf/8.3.0/../../../../sh2eb-elf/lib\libyaul.a(memb.o)
                0x000000000602cd58                _memb_init
                0x000000000602cd8c                _memb_alloc
                0x000000000602cdfe                _memb_free
                0x000000000602ce54                _memb_size
                0x000000000602ce60                _memb_bounds
 .text          0x000000000602ce7c       0x58 d:/projects/saturn/yaul/opt/x-tools/sh2eb-elf/bin/../lib/gcc/sh2eb-elf/8.3.0/../../../../sh2eb-elf/lib\libyaul.a(stpcpy.o)
                0x000000000602ce7c                _stpcpy
 .text          0x000000000602ced4       0x9c d:/projects/saturn/yaul/opt/x-tools/sh2eb-elf/bin/../lib/gcc/sh2eb-elf/8.3.0/../../../../sh2eb-elf/lib\libyaul.a(stpncpy.o)
                0x000000000602ced4                _stpncpy
 .text          0x000000000602cf70       0x28 d:/projects/saturn/yaul/opt/x-tools/sh2eb-elf/bin/../lib/gcc/sh2eb-elf/8.3.0/../../../../sh2eb-elf/lib\libyaul.a(strnlen.o)
                0x000000000602cf70                _strnlen
 .text          0x000000000602cf98       0x8c d:/projects/saturn/yaul/opt/x-tools/sh2eb-elf/bin/../lib/gcc/sh2eb-elf/8.3.0/../../../../sh2eb-elf/lib\libyaul.a(vdp2_sprite.o)
                0x000000000602cf98                _vdp2_sprite_priority_set
 .text          0x000000000602d024      0x108 d:/projects/saturn/yaul/opt/x-tools/sh2eb-elf/bin/../lib/gcc/sh2eb-elf/8.3.0/../../../../sh2eb-elf/lib\libyaul.a(cpu_divu.o)
                0x000000000602d0a0                _cpu_divu_ovfi_set
                0x000000000602d0e0                _cpu_divu_init
 .text          0x000000000602d12c       0x84 d:/projects/saturn/yaul/opt/x-tools/sh2eb-elf/bin/../lib/gcc/sh2eb-elf/8.3.0/../../../../sh2eb-elf/lib\libyaul.a(memchr.o)
                0x000000000602d12c                _memchr
 .text          0x000000000602d1b0       0x50 d:/projects/saturn/yaul/opt/x-tools/sh2eb-elf/bin/../lib/gcc/sh2eb-elf/8.3.0\libgcc.a(_ffssi2.o)
                0x000000000602d1b0                ___ffssi2
 *(.text.*)
 .text.startup  0x000000000602d200       0x14 sh2doom-1.10/i_main.o
                0x000000000602d200                _main
 *(.gnu.linkonce.t.*)
                0x000000000602d220                . = ALIGN (0x10)
 *fill*         0x000000000602d214        0xc 
                0x000000000602d220                __INIT_SECTION__ = .
 *(.init)
 .init          0x000000000602d220       0xb8 d:/projects/saturn/yaul/opt/x-tools/sh2eb-elf/bin/../lib/gcc/sh2eb-elf/8.3.0/../../../../sh2eb-elf/lib/init.o
                0x000000000602d2d8        0x2 SHORT 0xb
                0x000000000602d2da        0x2 SHORT 0x9
                0x000000000602d2e0                . = ALIGN (0x10)
 *fill*         0x000000000602d2dc        0x4 
                0x000000000602d2e0                __FINI_SECTION__ = .
 *(.fini)
 .fini          0x000000000602d2e0       0x10 d:/projects/saturn/yaul/opt/x-tools/sh2eb-elf/bin/../lib/gcc/sh2eb-elf/8.3.0/../../../../sh2eb-elf/lib/init.o
                0x000000000602d2f0        0x2 SHORT 0xb
                0x000000000602d2f2        0x2 SHORT 0x9
                0x000000000602d300                . = ALIGN (0x10)
 *fill*         0x000000000602d2f4        0xc 
                0x000000000602d300                __CTOR_LIST__ = .
                0x000000000602d300                ___CTOR_LIST__ = .
                0x000000000602d300        0x4 LONG 0x0 (((__CTOR_END__ - __CTOR_LIST__) / 0x4) - 0x2)
 *(SORT_BY_NAME(.ctors.*))
 *(.ctors)
                0x000000000602d304        0x4 LONG 0x0
                0x000000000602d308                __CTOR_END__ = .
                0x000000000602d310                . = ALIGN (0x10)
 *fill*         0x000000000602d308        0x8 
                0x000000000602d310                __DTOR_LIST__ = .
                0x000000000602d310                ___DTOR_LIST__ = .
                0x000000000602d310        0x4 LONG 0x0 (((__DTOR_END__ - __DTOR_LIST__) / 0x4) - 0x2)
 *(SORT_BY_NAME(.dtors.*))
 *(.dtors)
                0x000000000602d314        0x4 LONG 0x0
                0x000000000602d318                __DTOR_END__ = .
                0x000000000602d320                . = ALIGN (0x10)
 *fill*         0x000000000602d318        0x8 
 *(.rdata)
 *(.rodata)
 .rodata        0x000000000602d320       0x1a d:/projects/saturn/yaul/opt/x-tools/sh2eb-elf/bin/../lib/gcc/sh2eb-elf/8.3.0/../../../../sh2eb-elf/lib/c++-support.o
 *fill*         0x000000000602d33a        0x2 
 .rodata        0x000000000602d33c       0x30 sh2doom-1.10/am_map.o
 .rodata        0x000000000602d36c       0xb8 sh2doom-1.10/d_main.o
 .rodata        0x000000000602d424       0x18 sh2doom-1.10/f_wipe.o
 .rodata        0x000000000602d43c      0x104 sh2doom-1.10/hu_stuff.o
                0x000000000602d440                _english_shiftxform
                0x000000000602d4c0                _french_shiftxform
 .rodata        0x000000000602d540        0xc sh2doom-1.10/s_sound.o
                0x000000000602d540                _snd_prefixen
 .rodata        0x000000000602d54c      0x140 sh2doom-1.10/wi_stuff.o
 .rodata        0x000000000602d68c       0x14 d:/projects/saturn/yaul/opt/x-tools/sh2eb-elf/bin/../lib/gcc/sh2eb-elf/8.3.0\libgcc.a(_thenan_df.o)
                0x000000000602d68c                ___thenan_df
 .rodata        0x000000000602d6a0      0x100 d:/projects/saturn/yaul/opt/x-tools/sh2eb-elf/bin/../lib/gcc/sh2eb-elf/8.3.0\libgcc.a(_clz.o)
                0x000000000602d6a0                ___clz_tab
 .rodata        0x000000000602d7a0       0x14 d:/projects/saturn/yaul/opt/x-tools/sh2eb-elf/bin/../lib/gcc/sh2eb-elf/8.3.0/../../../../sh2eb-elf/lib\libyaul.a(dbgio.o)
 .rodata        0x000000000602d7b4       0x18 d:/projects/saturn/yaul/opt/x-tools/sh2eb-elf/bin/../lib/gcc/sh2eb-elf/8.3.0/../../../../sh2eb-elf/lib\libyaul.a(null.o)
                0x000000000602d7b4                __internal_dev_ops_null
 .rodata        0x000000000602d7cc      0x880 d:/projects/saturn/yaul/opt/x-tools/sh2eb-elf/bin/../lib/gcc/sh2eb-elf/8.3.0/../../../../sh2eb-elf/lib\libyaul.a(vdp2.o)
                0x000000000602d7cc                __internal_dev_ops_vdp2_simple
                0x000000000602d7e4                __internal_dev_ops_vdp2_async
                0x000000000602d84c                __font_cpd
 .rodata        0x000000000602e04c       0x18 d:/projects/saturn/yaul/opt/x-tools/sh2eb-elf/bin/../lib/gcc/sh2eb-elf/8.3.0/../../../../sh2eb-elf/lib\libyaul.a(usb-cart.o)
                0x000000000602e04c                __internal_dev_ops_usb_cart
 .rodata        0x000000000602e064      0xf1f d:/projects/saturn/yaul/opt/x-tools/sh2eb-elf/bin/../lib/gcc/sh2eb-elf/8.3.0/../../../../sh2eb-elf/lib\libyaul.a(cons.o)
 *fill*         0x000000000602ef83        0x1 
 .rodata        0x000000000602ef84      0x101 d:/projects/saturn/yaul/opt/x-tools/sh2eb-elf/bin/../lib/gcc/sh2eb-elf/8.3.0/../../../../sh2eb-elf/lib\libyaul.a(ctype.o)
 *fill*         0x000000000602f085        0x1 
 .rodata        0x000000000602f086        0x4 d:/projects/saturn/yaul/opt/x-tools/sh2eb-elf/bin/../lib/gcc/sh2eb-elf/8.3.0/../../../../sh2eb-elf/lib\libyaul.a(vdp_sync.o)
 *fill*         0x000000000602f08a        0x2 
 .rodata        0x000000000602f08c        0x8 d:/projects/saturn/yaul/opt/x-tools/sh2eb-elf/bin/../lib/gcc/sh2eb-elf/8.3.0/../../../../sh2eb-elf/lib\libyaul.a(vdp2_scrn_display.o)
 .rodata        0x000000000602f094        0x8 d:/projects/saturn/yaul/opt/x-tools/sh2eb-elf/bin/../lib/gcc/sh2eb-elf/8.3.0/../../../../sh2eb-elf/lib\libyaul.a(cpu_dual.o)
 .rodata        0x000000000602f09c        0xc d:/projects/saturn/yaul/opt/x-tools/sh2eb-elf/bin/../lib/gcc/sh2eb-elf/8.3.0/../../../../sh2eb-elf/lib\libyaul.a(smpc_peripheral_init.o)
 .rodata        0x000000000602f0a8       0x10 d:/projects/saturn/yaul/opt/x-tools/sh2eb-elf/bin/../lib/gcc/sh2eb-elf/8.3.0/../../../../sh2eb-elf/lib\libyaul.a(scu_dsp.o)
 *(.rodata.*)
 .rodata.str1.4
                0x000000000602f0b8       0x4b d:/projects/saturn/yaul/opt/x-tools/sh2eb-elf/bin/../lib/gcc/sh2eb-elf/8.3.0/../../../../sh2eb-elf/lib/c++-support.o
                                         0x4f (size before relaxing)
 *fill*         0x000000000602f103        0x1 
 .rodata.str1.4
                0x000000000602f104       0x8a sh2doom-1.10/am_map.o
 *fill*         0x000000000602f18e        0x2 
 .rodata.str1.4
                0x000000000602f190      0x793 sh2doom-1.10/d_main.o
 *fill*         0x000000000602f923        0x1 
 .rodata.str1.4
                0x000000000602f924      0x1c7 sh2doom-1.10/d_net.o
 *fill*         0x000000000602faeb        0x1 
 .rodata.str1.4
                0x000000000602faec      0x4bb sh2doom-1.10/dstrings.o
 *fill*         0x000000000602ffa7        0x1 
 .rodata.str1.4
                0x000000000602ffa8     0x1f51 sh2doom-1.10/f_finale.o
                                       0x1f69 (size before relaxing)
 *fill*         0x0000000006031ef9        0x3 
 .rodata.str1.4
                0x0000000006031efc      0x135 sh2doom-1.10/g_game.o
                                        0x13d (size before relaxing)
 *fill*         0x0000000006032031        0x3 
 .rodata.str1.4
                0x0000000006032034      0xcf0 sh2doom-1.10/hu_stuff.o
 .rodata.str1.4
                0x0000000006032d24        0xd sh2doom-1.10/i_sound.o
 *fill*         0x0000000006032d31        0x3 
 .rodata.str1.4
                0x0000000006032d34       0x1f sh2doom-1.10/i_video.o
 *fill*         0x0000000006032d53        0x1 
 .rodata.str1.4
                0x0000000006032d54      0x44d sh2doom-1.10/info.o
 *fill*         0x00000000060331a1        0x3 
 .rodata.str1.4
                0x00000000060331a4       0x19 sh2doom-1.10/m_fixed.o
 *fill*         0x00000000060331bd        0x3 
 .rodata.str1.4
                0x00000000060331c0      0x3a6 sh2doom-1.10/m_menu.o
                                        0x3c0 (size before relaxing)
 *fill*         0x0000000006033566        0x2 
 .rodata.str1.4
                0x0000000006033568      0x167 sh2doom-1.10/m_misc.o
                                        0x1fc (size before relaxing)
 *fill*         0x00000000060336cf        0x1 
 .rodata.str1.4
                0x00000000060336d0       0xfd sh2doom-1.10/p_doors.o
 *fill*         0x00000000060337cd        0x3 
 .rodata.str1.4
                0x00000000060337d0       0x3d sh2doom-1.10/p_enemy.o
 *fill*         0x000000000603380d        0x3 
 .rodata.str1.4
                0x0000000006033810      0x417 sh2doom-1.10/p_inter.o
 *fill*         0x0000000006033c27        0x1 
 .rodata.str1.4
                0x0000000006033c28       0x1f sh2doom-1.10/p_map.o
 *fill*         0x0000000006033c47        0x1 
 .rodata.str1.4
                0x0000000006033c48       0x2d sh2doom-1.10/p_mobj.o
 *fill*         0x0000000006033c75        0x3 
 .rodata.str1.4
                0x0000000006033c78       0x45 sh2doom-1.10/p_plats.o
 *fill*         0x0000000006033cbd        0x3 
 .rodata.str1.4
                0x0000000006033cc0       0x32 sh2doom-1.10/p_saveg.o
                                         0x52 (size before relaxing)
 *fill*         0x0000000006033cf2        0x2 
 .rodata.str1.4
                0x0000000006033cf4       0x2a sh2doom-1.10/p_setup.o
 *fill*         0x0000000006033d1e        0x2 
 .rodata.str1.4
                0x0000000006033d20       0x28 sh2doom-1.10/p_sight.o
 .rodata.str1.4
                0x0000000006033d48       0x5d sh2doom-1.10/p_spec.o
 *fill*         0x0000000006033da5        0x3 
 .rodata.str1.4
                0x0000000006033da8       0x25 sh2doom-1.10/p_switch.o
 *fill*         0x0000000006033dcd        0x3 
 .rodata.str1.4
                0x0000000006033dd0       0x23 sh2doom-1.10/r_bsp.o
 *fill*         0x0000000006033df3        0x1 
 .rodata.str1.4
                0x0000000006033df4      0x1ba sh2doom-1.10/r_data.o
                                        0x1c2 (size before relaxing)
 *fill*         0x0000000006033fae        0x2 
 .rodata.str1.4
                0x0000000006033fb0       0xa0 sh2doom-1.10/r_draw.o
 .rodata.str1.4
                0x0000000006034050       0x7e sh2doom-1.10/r_main.o
 *fill*         0x00000000060340ce        0x2 
 .rodata.str1.4
                0x00000000060340d0       0xd2 sh2doom-1.10/r_plane.o
 *fill*         0x00000000060341a2        0x2 
 .rodata.str1.4
                0x00000000060341a4       0x20 sh2doom-1.10/r_segs.o
 .rodata.str1.4
                0x00000000060341c4      0x1df sh2doom-1.10/r_things.o
 *fill*         0x00000000060343a3        0x1 
 .rodata.str1.4
                0x00000000060343a4       0x92 sh2doom-1.10/s_sound.o
 *fill*         0x0000000006034436        0x2 
 .rodata.str1.4
                0x0000000006034438      0x577 sh2doom-1.10/sounds.o
 *fill*         0x00000000060349af        0x1 
 .rodata.str1.4
                0x00000000060349b0       0x64 sh2doom-1.10/st_lib.o
 .rodata.str1.4
                0x0000000006034a14      0x213 sh2doom-1.10/st_stuff.o
                                        0x21b (size before relaxing)
 *fill*         0x0000000006034c27        0x1 
 .rodata.str1.4
                0x0000000006034c28       0x48 sh2doom-1.10/v_video.o
 .rodata.str1.4
                0x0000000006034c70      0x1b8 sh2doom-1.10/w_wad.o
 .rodata.str1.4
                0x0000000006034e28      0x13f sh2doom-1.10/wi_stuff.o
                                        0x14b (size before relaxing)
 *fill*         0x0000000006034f67        0x1 
 .rodata.str1.4
                0x0000000006034f68      0x276 sh2doom-1.10/z_zone.o
 *fill*         0x00000000060351de        0x2 
 .rodata.str1.4
                0x00000000060351e0      0x11f d:/projects/saturn/yaul/opt/x-tools/sh2eb-elf/bin/../lib/gcc/sh2eb-elf/8.3.0/../../../../sh2eb-elf/lib\libyaul.a(dbgio.o)
                                        0x137 (size before relaxing)
 *fill*         0x00000000060352ff        0x1 
 .rodata.str1.4
                0x0000000006035300      0x32b d:/projects/saturn/yaul/opt/x-tools/sh2eb-elf/bin/../lib/gcc/sh2eb-elf/8.3.0/../../../../sh2eb-elf/lib\libyaul.a(vdp2.o)
                                        0x343 (size before relaxing)
 *fill*         0x000000000603562b        0x1 
 .rodata.str1.4
                0x000000000603562c       0x7b d:/projects/saturn/yaul/opt/x-tools/sh2eb-elf/bin/../lib/gcc/sh2eb-elf/8.3.0/../../../../sh2eb-elf/lib\libyaul.a(usb-cart.o)
                                         0xaf (size before relaxing)
 *fill*         0x00000000060356a7        0x1 
 .rodata.cst2   0x00000000060356a8        0x2 d:/projects/saturn/yaul/opt/x-tools/sh2eb-elf/bin/../lib/gcc/sh2eb-elf/8.3.0/../../../../sh2eb-elf/lib\libyaul.a(usb-cart.o)
 *fill*         0x00000000060356aa        0x2 
 .rodata.str1.4
                0x00000000060356ac      0x19f d:/projects/saturn/yaul/opt/x-tools/sh2eb-elf/bin/../lib/gcc/sh2eb-elf/8.3.0/../../../../sh2eb-elf/lib\libyaul.a(cons.o)
                                        0x1bf (size before relaxing)
 *fill*         0x000000000603584b        0x1 
 .rodata.str1.4
                0x000000000603584c       0xc0 d:/projects/saturn/yaul/opt/x-tools/sh2eb-elf/bin/../lib/gcc/sh2eb-elf/8.3.0/../../../../sh2eb-elf/lib\libyaul.a(dma-queue.o)
                                         0xc4 (size before relaxing)
 .rodata.str1.4
                0x000000000603590c      0x898 d:/projects/saturn/yaul/opt/x-tools/sh2eb-elf/bin/../lib/gcc/sh2eb-elf/8.3.0/../../../../sh2eb-elf/lib\libyaul.a(tlsf.o)
 .rodata.str1.4
                0x00000000060361a4       0x2d d:/projects/saturn/yaul/opt/x-tools/sh2eb-elf/bin/../lib/gcc/sh2eb-elf/8.3.0/../../../../sh2eb-elf/lib\libyaul.a(snprintf.o)
 *fill*         0x00000000060361d1        0x3 
 .rodata.str1.4
                0x00000000060361d4       0x41 d:/projects/saturn/yaul/opt/x-tools/sh2eb-elf/bin/../lib/gcc/sh2eb-elf/8.3.0/../../../../sh2eb-elf/lib\libyaul.a(assert.o)
                                         0x49 (size before relaxing)
 *fill*         0x0000000006036215        0x3 
 .rodata.cst4   0x0000000006036218        0x4 d:/projects/saturn/yaul/opt/x-tools/sh2eb-elf/bin/../lib/gcc/sh2eb-elf/8.3.0/../../../../sh2eb-elf/lib\libyaul.a(vdp_init.o)
 .rodata.str1.4
                0x000000000603621c       0x6f d:/projects/saturn/yaul/opt/x-tools/sh2eb-elf/bin/../lib/gcc/sh2eb-elf/8.3.0/../../../../sh2eb-elf/lib\libyaul.a(vdp_sync.o)
 *fill*         0x000000000603628b        0x1 
 .rodata.str1.4
                0x000000000603628c       0x5e d:/projects/saturn/yaul/opt/x-tools/sh2eb-elf/bin/../lib/gcc/sh2eb-elf/8.3.0/../../../../sh2eb-elf/lib\libyaul.a(vdp1_vram.o)
                                         0x62 (size before relaxing)
 *fill*         0x00000000060362ea        0x2 
 .rodata.str1.4
                0x00000000060362ec      0x23e d:/projects/saturn/yaul/opt/x-tools/sh2eb-elf/bin/../lib/gcc/sh2eb-elf/8.3.0/../../../../sh2eb-elf/lib\libyaul.a(cpu_init.o)
 *fill*         0x000000000603652a        0x2 
 .rodata.str1.4
                0x000000000603652c       0xbc d:/projects/saturn/yaul/opt/x-tools/sh2eb-elf/bin/../lib/gcc/sh2eb-elf/8.3.0/../../../../sh2eb-elf/lib\libyaul.a(smpc_peripheral_init.o)
                                         0xcc (size before relaxing)
 .rodata.str1.4
                0x00000000060365e8      0x110 d:/projects/saturn/yaul/opt/x-tools/sh2eb-elf/bin/../lib/gcc/sh2eb-elf/8.3.0/../../../../sh2eb-elf/lib\libyaul.a(scu_dma.o)
                                        0x140 (size before relaxing)
 .rodata.str1.4
                0x00000000060366f8      0x118 d:/projects/saturn/yaul/opt/x-tools/sh2eb-elf/bin/../lib/gcc/sh2eb-elf/8.3.0/../../../../sh2eb-elf/lib\libyaul.a(callback-list.o)
                                        0x12c (size before relaxing)
 *(.gnu.linkonce.r.*)
                0x0000000006036810                . = ALIGN (0x10)
                0x0000000006036810                PROVIDE (__text_end = .)

.rela.dyn       0x0000000006036810        0x0
 .rela.text     0x0000000006036810        0x0 d:/projects/saturn/yaul/opt/x-tools/sh2eb-elf/bin/../lib/gcc/sh2eb-elf/8.3.0/../../../../sh2eb-elf/lib/crt0.o
 .rela.init     0x0000000006036810        0x0 d:/projects/saturn/yaul/opt/x-tools/sh2eb-elf/bin/../lib/gcc/sh2eb-elf/8.3.0/../../../../sh2eb-elf/lib/crt0.o
 .rela.data     0x0000000006036810        0x0 d:/projects/saturn/yaul/opt/x-tools/sh2eb-elf/bin/../lib/gcc/sh2eb-elf/8.3.0/../../../../sh2eb-elf/lib/crt0.o
 .rela.rodata   0x0000000006036810        0x0 d:/projects/saturn/yaul/opt/x-tools/sh2eb-elf/bin/../lib/gcc/sh2eb-elf/8.3.0/../../../../sh2eb-elf/lib/crt0.o

.data           0x0000000006036810    0x1d5c0
                [!provide]                        PROVIDE (__data_start = .)
 *(.data)
 .data          0x0000000006036810        0x0 d:/projects/saturn/yaul/opt/x-tools/sh2eb-elf/bin/../lib/gcc/sh2eb-elf/8.3.0/../../../../sh2eb-elf/lib/crt0.o
 .data          0x0000000006036810        0x0 d:/projects/saturn/yaul/opt/x-tools/sh2eb-elf/bin/../lib/gcc/sh2eb-elf/8.3.0/../../../../sh2eb-elf/lib/init.o
 .data          0x0000000006036810        0x0 d:/projects/saturn/yaul/opt/x-tools/sh2eb-elf/bin/../lib/gcc/sh2eb-elf/8.3.0/../../../../sh2eb-elf/lib/c++-support.o
 .data          0x0000000006036810      0x214 sh2doom-1.10/am_map.o
                0x0000000006036854                _thintriangle_guy
                0x0000000006036884                _triangle_guy
                0x00000000060368b4                _cheat_player_arrow
                0x00000000060369b4                _player_arrow
 .data          0x0000000006036a24       0xd8 sh2doom-1.10/d_items.o
                0x0000000006036a24                _weaponinfo
 .data          0x0000000006036afc        0x8 sh2doom-1.10/d_main.o
                0x0000000006036b00                _wipegamestate
 .data          0x0000000006036b04        0x0 sh2doom-1.10/d_net.o
 .data          0x0000000006036b04        0x0 sh2doom-1.10/doomdef.o
 .data          0x0000000006036b04        0x4 sh2doom-1.10/doomstat.o
                0x0000000006036b04                _gamemode
 .data          0x0000000006036b08       0x5c sh2doom-1.10/dstrings.o
                0x0000000006036b08                _endmsg
 .data          0x0000000006036b64       0xe8 sh2doom-1.10/f_finale.o
                0x0000000006036b64                _castorder
                0x0000000006036bf4                _t6text
                0x0000000006036bf8                _t5text
                0x0000000006036bfc                _t4text
                0x0000000006036c00                _t3text
                0x0000000006036c04                _t2text
                0x0000000006036c08                _t1text
                0x0000000006036c0c                _p6text
                0x0000000006036c10                _p5text
                0x0000000006036c14                _p4text
                0x0000000006036c18                _p3text
                0x0000000006036c1c                _p2text
                0x0000000006036c20                _p1text
                0x0000000006036c24                _c6text
                0x0000000006036c28                _c5text
                0x0000000006036c2c                _c4text
                0x0000000006036c30                _c3text
                0x0000000006036c34                _c2text
                0x0000000006036c38                _c1text
                0x0000000006036c3c                _e4text
                0x0000000006036c40                _e3text
                0x0000000006036c44                _e2text
                0x0000000006036c48                _e1text
 .data          0x0000000006036c4c        0x0 sh2doom-1.10/f_wipe.o
 .data          0x0000000006036c4c      0x148 sh2doom-1.10/g_game.o
                0x0000000006036c4c                _cpars
                0x0000000006036ccc                _pars
                0x0000000006036d6c                _joybuttons
                0x0000000006036d70                _mousebuttons
                0x0000000006036d74                _angleturn
                0x0000000006036d80                _sidemove
                0x0000000006036d88                _forwardmove
                0x0000000006036d90                _precache
 .data          0x0000000006036d94        0x0 sh2doom-1.10/hu_lib.o
 .data          0x0000000006036d94      0x2ec sh2doom-1.10/hu_stuff.o
                0x0000000006036d94                _frenchKeyMap
                0x0000000006036e14                _mapnamest
                0x0000000006036e94                _mapnamesp
                0x0000000006036f14                _mapnames2
                0x0000000006036f94                _mapnames
                0x0000000006037048                _player_names
                0x0000000006037058                _chat_macros
 .data          0x0000000006037080        0x0 sh2doom-1.10/i_main.o
 .data          0x0000000006037080        0x0 sh2doom-1.10/i_net.o
 .data          0x0000000006037080        0x8 sh2doom-1.10/i_sound.o
                0x0000000006037084                _sndserver_filename
 .data          0x0000000006037088        0x4 sh2doom-1.10/i_system.o
                0x0000000006037088                _mb_used
 .data          0x000000000603708c        0x4 sh2doom-1.10/i_video.o
                0x000000000603708c                _doPointerWarp
 .data          0x0000000006037090     0x9d28 sh2doom-1.10/info.o
                0x0000000006037090                _mobjinfo
                0x000000000603a1cc                _states
                0x0000000006040b90                _sprnames
 .data          0x0000000006040db8        0x0 sh2doom-1.10/m_bbox.o
 .data          0x0000000006040db8        0x4 sh2doom-1.10/m_cheat.o
 .data          0x0000000006040dbc        0x0 sh2doom-1.10/m_fixed.o
 .data          0x0000000006040dbc      0x504 sh2doom-1.10/m_menu.o
                0x0000000006040dbc                _quitsounds2
                0x0000000006040ddc                _quitsounds
                0x0000000006040dfc                _msgNames
                0x0000000006040e0e                _detailNames
                0x0000000006040e20                _SaveDef
                0x0000000006040e38                _SaveMenu
                0x0000000006040eb0                _LoadDef
                0x0000000006040ec8                _LoadMenu
                0x0000000006040f40                _SoundDef
                0x0000000006040f58                _SoundMenu
                0x0000000006040fa8                _ReadDef2
                0x0000000006040fc0                _ReadMenu2
                0x0000000006040fd4                _ReadDef1
                0x0000000006040fec                _ReadMenu1
                0x0000000006041000                _OptionsDef
                0x0000000006041018                _OptionsMenu
                0x00000000060410b8                _NewDef
                0x00000000060410d0                _NewGameMenu
                0x0000000006041134                _EpiDef
                0x000000000604114c                _EpisodeMenu
                0x000000000604119c                _MainDef
                0x00000000060411b4                _MainMenu
                0x000000000604122c                _skullName
                0x000000000604123e                _gammamsg
 .data          0x00000000060412c0      0x21c sh2doom-1.10/m_misc.o
                0x00000000060412c0                _defaults
 .data          0x00000000060414dc      0x100 sh2doom-1.10/m_random.o
                0x00000000060414dc                _rndtable
 .data          0x00000000060415dc        0x0 sh2doom-1.10/m_swap.o
 .data          0x00000000060415dc        0x0 sh2doom-1.10/p_ceilng.o
 .data          0x00000000060415dc        0x0 sh2doom-1.10/p_doors.o
 .data          0x00000000060415dc       0x78 sh2doom-1.10/p_enemy.o
                0x00000000060415dc                _TRACEANGLE
                0x00000000060415e0                _yspeed
                0x0000000006041600                _xspeed
                0x0000000006041620                _diags
                0x0000000006041630                _opposite
 .data          0x0000000006041654        0x0 sh2doom-1.10/p_floor.o
 .data          0x0000000006041654       0x20 sh2doom-1.10/p_inter.o
                0x0000000006041654                _clipammo
                0x0000000006041664                _maxammo
 .data          0x0000000006041674        0x0 sh2doom-1.10/p_lights.o
 .data          0x0000000006041674        0x0 sh2doom-1.10/p_map.o
 .data          0x0000000006041674        0x0 sh2doom-1.10/p_maputl.o
 .data          0x0000000006041674        0x0 sh2doom-1.10/p_mobj.o
 .data          0x0000000006041674        0x0 sh2doom-1.10/p_plats.o
 .data          0x0000000006041674        0x0 sh2doom-1.10/p_pspr.o
 .data          0x0000000006041674        0x0 sh2doom-1.10/p_saveg.o
 .data          0x0000000006041674        0x0 sh2doom-1.10/p_setup.o
 .data          0x0000000006041674        0x0 sh2doom-1.10/p_sight.o
 .data          0x0000000006041674      0x284 sh2doom-1.10/p_spec.o
                0x0000000006041674                _animdefs
 .data          0x00000000060418f8      0x334 sh2doom-1.10/p_switch.o
                0x00000000060418f8                _alphSwitchList
 .data          0x0000000006041c2c        0x0 sh2doom-1.10/p_telept.o
 .data          0x0000000006041c2c        0x0 sh2doom-1.10/p_tick.o
 .data          0x0000000006041c2c        0x0 sh2doom-1.10/p_user.o
 .data          0x0000000006041c2c       0xc0 sh2doom-1.10/r_bsp.o
                0x0000000006041c2c                _checkcoord
 .data          0x0000000006041cec        0x0 sh2doom-1.10/r_data.o
 .data          0x0000000006041cec       0xc8 sh2doom-1.10/r_draw.o
                0x0000000006041cec                _fuzzoffset
 .data          0x0000000006041db4        0x8 sh2doom-1.10/r_main.o
                0x0000000006041db4                _finecosine
                0x0000000006041db8                _validcount
 .data          0x0000000006041dbc        0x0 sh2doom-1.10/r_plane.o
 .data          0x0000000006041dbc        0x0 sh2doom-1.10/r_segs.o
 .data          0x0000000006041dbc        0x0 sh2doom-1.10/r_sky.o
 .data          0x0000000006041dbc        0x0 sh2doom-1.10/r_things.o
 .data          0x0000000006041dbc        0x8 sh2doom-1.10/s_sound.o
                0x0000000006041dbc                _snd_MusicVolume
                0x0000000006041dc0                _snd_SfxVolume
 .data          0x0000000006041dc4     0x1394 sh2doom-1.10/sounds.o
                0x0000000006041dc4                _S_sfx
                0x0000000006042d18                _S_music
 .data          0x0000000006043158        0x0 sh2doom-1.10/st_lib.o
 .data          0x0000000006043158      0x130 sh2doom-1.10/st_stuff.o
                0x0000000006043168                _cheat_mypos
                0x0000000006043170                _cheat_clev
                0x0000000006043178                _cheat_choppers
                0x0000000006043180                _cheat_powerup
                0x00000000060431b8                _cheat_commercial_noclip
                0x00000000060431c0                _cheat_noclip
                0x00000000060431c8                _cheat_ammonokey
                0x00000000060431d0                _cheat_ammo
                0x00000000060431d8                _cheat_god
                0x00000000060431e0                _cheat_mus
                0x00000000060431e8                _cheat_mypos_seq
                0x00000000060431f0                _cheat_clev_seq
                0x00000000060431fa                _cheat_powerup_seq
                0x0000000006043240                _cheat_commercial_noclip_seq
                0x0000000006043248                _cheat_noclip_seq
                0x0000000006043254                _cheat_ammonokey_seq
                0x000000000604325c                _cheat_ammo_seq
                0x0000000006043264                _cheat_god_seq
                0x000000000604326c                _cheat_choppers_seq
                0x0000000006043278                _cheat_mus_seq
 .data          0x0000000006043288    0x10004 sh2doom-1.10/tables.o
                0x0000000006043288                _tantoangle
                0x000000000604528c                _finesine
                0x000000000604f28c                _finetangent
 .data          0x000000000605328c      0x500 sh2doom-1.10/v_video.o
                0x000000000605328c                _gammatable
 .data          0x000000000605378c        0x0 sh2doom-1.10/w_wad.o
 .data          0x000000000605378c      0x578 sh2doom-1.10/wi_stuff.o
 .data          0x0000000006053d04        0x0 sh2doom-1.10/z_zone.o
 .data          0x0000000006053d04        0x0 d:/projects/saturn/yaul/opt/x-tools/sh2eb-elf/bin/../lib/gcc/sh2eb-elf/8.3.0\libgcc.a(_ashiftrt.o)
 .data          0x0000000006053d04        0x0 d:/projects/saturn/yaul/opt/x-tools/sh2eb-elf/bin/../lib/gcc/sh2eb-elf/8.3.0\libgcc.a(_ashiftrt_n.o)
 .data          0x0000000006053d04        0x0 d:/projects/saturn/yaul/opt/x-tools/sh2eb-elf/bin/../lib/gcc/sh2eb-elf/8.3.0\libgcc.a(_ashiftlt.o)
 .data          0x0000000006053d04        0x0 d:/projects/saturn/yaul/opt/x-tools/sh2eb-elf/bin/../lib/gcc/sh2eb-elf/8.3.0\libgcc.a(_movmem.o)
 .data          0x0000000006053d04        0x0 d:/projects/saturn/yaul/opt/x-tools/sh2eb-elf/bin/../lib/gcc/sh2eb-elf/8.3.0\libgcc.a(_sdivsi3.o)
 .data          0x0000000006053d04        0x0 d:/projects/saturn/yaul/opt/x-tools/sh2eb-elf/bin/../lib/gcc/sh2eb-elf/8.3.0\libgcc.a(_udivsi3.o)
 .data          0x0000000006053d04        0x0 d:/projects/saturn/yaul/opt/x-tools/sh2eb-elf/bin/../lib/gcc/sh2eb-elf/8.3.0\libgcc.a(_mul_df.o)
 .data          0x0000000006053d04        0x0 d:/projects/saturn/yaul/opt/x-tools/sh2eb-elf/bin/../lib/gcc/sh2eb-elf/8.3.0\libgcc.a(_div_df.o)
 .data          0x0000000006053d04        0x0 d:/projects/saturn/yaul/opt/x-tools/sh2eb-elf/bin/../lib/gcc/sh2eb-elf/8.3.0\libgcc.a(_ge_df.o)
 .data          0x0000000006053d04        0x0 d:/projects/saturn/yaul/opt/x-tools/sh2eb-elf/bin/../lib/gcc/sh2eb-elf/8.3.0\libgcc.a(_lt_df.o)
 .data          0x0000000006053d04        0x0 d:/projects/saturn/yaul/opt/x-tools/sh2eb-elf/bin/../lib/gcc/sh2eb-elf/8.3.0\libgcc.a(_si_to_df.o)
 .data          0x0000000006053d04        0x0 d:/projects/saturn/yaul/opt/x-tools/sh2eb-elf/bin/../lib/gcc/sh2eb-elf/8.3.0\libgcc.a(_df_to_si.o)
 .data          0x0000000006053d04        0x0 d:/projects/saturn/yaul/opt/x-tools/sh2eb-elf/bin/../lib/gcc/sh2eb-elf/8.3.0\libgcc.a(_thenan_df.o)
 .data          0x0000000006053d04        0x0 d:/projects/saturn/yaul/opt/x-tools/sh2eb-elf/bin/../lib/gcc/sh2eb-elf/8.3.0\libgcc.a(_lshrdi3.o)
 .data          0x0000000006053d04        0x0 d:/projects/saturn/yaul/opt/x-tools/sh2eb-elf/bin/../lib/gcc/sh2eb-elf/8.3.0\libgcc.a(_ashldi3.o)
 .data          0x0000000006053d04        0x0 d:/projects/saturn/yaul/opt/x-tools/sh2eb-elf/bin/../lib/gcc/sh2eb-elf/8.3.0\libgcc.a(_clzsi2.o)
 .data          0x0000000006053d04        0x0 d:/projects/saturn/yaul/opt/x-tools/sh2eb-elf/bin/../lib/gcc/sh2eb-elf/8.3.0\libgcc.a(_pack_df.o)
 .data          0x0000000006053d04        0x0 d:/projects/saturn/yaul/opt/x-tools/sh2eb-elf/bin/../lib/gcc/sh2eb-elf/8.3.0\libgcc.a(_unpack_df.o)
 .data          0x0000000006053d04        0x0 d:/projects/saturn/yaul/opt/x-tools/sh2eb-elf/bin/../lib/gcc/sh2eb-elf/8.3.0\libgcc.a(_fpcmp_parts_df.o)
 .data          0x0000000006053d04        0x0 d:/projects/saturn/yaul/opt/x-tools/sh2eb-elf/bin/../lib/gcc/sh2eb-elf/8.3.0\libgcc.a(_lshiftrt.o)
 .data          0x0000000006053d04        0x0 d:/projects/saturn/yaul/opt/x-tools/sh2eb-elf/bin/../lib/gcc/sh2eb-elf/8.3.0\libgcc.a(_clz.o)
 .data          0x0000000006053d04        0x0 d:/projects/saturn/yaul/opt/x-tools/sh2eb-elf/bin/../lib/gcc/sh2eb-elf/8.3.0/../../../../sh2eb-elf/lib\libyaul.a(internal.o)
 .data          0x0000000006053d04        0x0 d:/projects/saturn/yaul/opt/x-tools/sh2eb-elf/bin/../lib/gcc/sh2eb-elf/8.3.0/../../../../sh2eb-elf/lib\libyaul.a(dbgio.o)
 .data          0x0000000006053d04        0x0 d:/projects/saturn/yaul/opt/x-tools/sh2eb-elf/bin/../lib/gcc/sh2eb-elf/8.3.0/../../../../sh2eb-elf/lib\libyaul.a(null.o)
 .data          0x0000000006053d04       0x30 d:/projects/saturn/yaul/opt/x-tools/sh2eb-elf/bin/../lib/gcc/sh2eb-elf/8.3.0/../../../../sh2eb-elf/lib\libyaul.a(vdp2.o)
 .data          0x0000000006053d34        0x0 d:/projects/saturn/yaul/opt/x-tools/sh2eb-elf/bin/../lib/gcc/sh2eb-elf/8.3.0/../../../../sh2eb-elf/lib\libyaul.a(usb-cart.o)
 .data          0x0000000006053d34        0x0 d:/projects/saturn/yaul/opt/x-tools/sh2eb-elf/bin/../lib/gcc/sh2eb-elf/8.3.0/../../../../sh2eb-elf/lib\libyaul.a(cons.o)
 .data          0x0000000006053d34        0x0 d:/projects/saturn/yaul/opt/x-tools/sh2eb-elf/bin/../lib/gcc/sh2eb-elf/8.3.0/../../../../sh2eb-elf/lib\libyaul.a(dma-queue.o)
 .data          0x0000000006053d34        0x0 d:/projects/saturn/yaul/opt/x-tools/sh2eb-elf/bin/../lib/gcc/sh2eb-elf/8.3.0/../../../../sh2eb-elf/lib\libyaul.a(tlsf.o)
 .data          0x0000000006053d34        0x0 d:/projects/saturn/yaul/opt/x-tools/sh2eb-elf/bin/../lib/gcc/sh2eb-elf/8.3.0/../../../../sh2eb-elf/lib\libyaul.a(ctype.o)
 .data          0x0000000006053d34        0x0 d:/projects/saturn/yaul/opt/x-tools/sh2eb-elf/bin/../lib/gcc/sh2eb-elf/8.3.0/../../../../sh2eb-elf/lib\libyaul.a(memcpy.o)
 .data          0x0000000006053d34        0x0 d:/projects/saturn/yaul/opt/x-tools/sh2eb-elf/bin/../lib/gcc/sh2eb-elf/8.3.0/../../../../sh2eb-elf/lib\libyaul.a(memset.o)
 .data          0x0000000006053d34        0x0 d:/projects/saturn/yaul/opt/x-tools/sh2eb-elf/bin/../lib/gcc/sh2eb-elf/8.3.0/../../../../sh2eb-elf/lib\libyaul.a(strcasestr.o)
 .data          0x0000000006053d34        0x0 d:/projects/saturn/yaul/opt/x-tools/sh2eb-elf/bin/../lib/gcc/sh2eb-elf/8.3.0/../../../../sh2eb-elf/lib\libyaul.a(strcat.o)
 .data          0x0000000006053d34        0x0 d:/projects/saturn/yaul/opt/x-tools/sh2eb-elf/bin/../lib/gcc/sh2eb-elf/8.3.0/../../../../sh2eb-elf/lib\libyaul.a(strcmp.o)
 .data          0x0000000006053d34        0x0 d:/projects/saturn/yaul/opt/x-tools/sh2eb-elf/bin/../lib/gcc/sh2eb-elf/8.3.0/../../../../sh2eb-elf/lib\libyaul.a(strcpy.o)
 .data          0x0000000006053d34        0x0 d:/projects/saturn/yaul/opt/x-tools/sh2eb-elf/bin/../lib/gcc/sh2eb-elf/8.3.0/../../../../sh2eb-elf/lib\libyaul.a(strlen.o)
 .data          0x0000000006053d34        0x0 d:/projects/saturn/yaul/opt/x-tools/sh2eb-elf/bin/../lib/gcc/sh2eb-elf/8.3.0/../../../../sh2eb-elf/lib\libyaul.a(strncasecmp.o)
 .data          0x0000000006053d34        0x0 d:/projects/saturn/yaul/opt/x-tools/sh2eb-elf/bin/../lib/gcc/sh2eb-elf/8.3.0/../../../../sh2eb-elf/lib\libyaul.a(strncmp.o)
 .data          0x0000000006053d34        0x0 d:/projects/saturn/yaul/opt/x-tools/sh2eb-elf/bin/../lib/gcc/sh2eb-elf/8.3.0/../../../../sh2eb-elf/lib\libyaul.a(strncpy.o)
 .data          0x0000000006053d34        0x0 d:/projects/saturn/yaul/opt/x-tools/sh2eb-elf/bin/../lib/gcc/sh2eb-elf/8.3.0/../../../../sh2eb-elf/lib\libyaul.a(snprintf.o)
 .data          0x0000000006053d34        0x0 d:/projects/saturn/yaul/opt/x-tools/sh2eb-elf/bin/../lib/gcc/sh2eb-elf/8.3.0/../../../../sh2eb-elf/lib\libyaul.a(abort.o)
 .data          0x0000000006053d34        0x0 d:/projects/saturn/yaul/opt/x-tools/sh2eb-elf/bin/../lib/gcc/sh2eb-elf/8.3.0/../../../../sh2eb-elf/lib\libyaul.a(abs.o)
 .data          0x0000000006053d34        0x0 d:/projects/saturn/yaul/opt/x-tools/sh2eb-elf/bin/../lib/gcc/sh2eb-elf/8.3.0/../../../../sh2eb-elf/lib\libyaul.a(assert.o)
 .data          0x0000000006053d34        0x0 d:/projects/saturn/yaul/opt/x-tools/sh2eb-elf/bin/../lib/gcc/sh2eb-elf/8.3.0/../../../../sh2eb-elf/lib\libyaul.a(free.o)
 .data          0x0000000006053d34        0x0 d:/projects/saturn/yaul/opt/x-tools/sh2eb-elf/bin/../lib/gcc/sh2eb-elf/8.3.0/../../../../sh2eb-elf/lib\libyaul.a(malloc.o)
 .data          0x0000000006053d34        0x0 d:/projects/saturn/yaul/opt/x-tools/sh2eb-elf/bin/../lib/gcc/sh2eb-elf/8.3.0/../../../../sh2eb-elf/lib\libyaul.a(dram-cart.o)
 .data          0x0000000006053d34       0x18 d:/projects/saturn/yaul/opt/x-tools/sh2eb-elf/bin/../lib/gcc/sh2eb-elf/8.3.0/../../../../sh2eb-elf/lib\libyaul.a(vdp_init.o)
 .data          0x0000000006053d4c       0x18 d:/projects/saturn/yaul/opt/x-tools/sh2eb-elf/bin/../lib/gcc/sh2eb-elf/8.3.0/../../../../sh2eb-elf/lib\libyaul.a(vdp_sync.o)
 .data          0x0000000006053d64        0x0 d:/projects/saturn/yaul/opt/x-tools/sh2eb-elf/bin/../lib/gcc/sh2eb-elf/8.3.0/../../../../sh2eb-elf/lib\libyaul.a(vdp-internal.o)
 .data          0x0000000006053d64        0x0 d:/projects/saturn/yaul/opt/x-tools/sh2eb-elf/bin/../lib/gcc/sh2eb-elf/8.3.0/../../../../sh2eb-elf/lib\libyaul.a(vdp1_env.o)
 .data          0x0000000006053d64        0x0 d:/projects/saturn/yaul/opt/x-tools/sh2eb-elf/bin/../lib/gcc/sh2eb-elf/8.3.0/../../../../sh2eb-elf/lib\libyaul.a(vdp1_vram.o)
 .data          0x0000000006053d64        0x0 d:/projects/saturn/yaul/opt/x-tools/sh2eb-elf/bin/../lib/gcc/sh2eb-elf/8.3.0/../../../../sh2eb-elf/lib\libyaul.a(vdp2_cram.o)
 .data          0x0000000006053d64        0x0 d:/projects/saturn/yaul/opt/x-tools/sh2eb-elf/bin/../lib/gcc/sh2eb-elf/8.3.0/../../../../sh2eb-elf/lib\libyaul.a(vdp2_scrn.o)
 .data          0x0000000006053d64        0x2 d:/projects/saturn/yaul/opt/x-tools/sh2eb-elf/bin/../lib/gcc/sh2eb-elf/8.3.0/../../../../sh2eb-elf/lib\libyaul.a(vdp2_scrn_back_screen.o)
 .data          0x0000000006053d66        0x0 d:/projects/saturn/yaul/opt/x-tools/sh2eb-elf/bin/../lib/gcc/sh2eb-elf/8.3.0/../../../../sh2eb-elf/lib\libyaul.a(vdp2_scrn_display.o)
 .data          0x0000000006053d66        0x0 d:/projects/saturn/yaul/opt/x-tools/sh2eb-elf/bin/../lib/gcc/sh2eb-elf/8.3.0/../../../../sh2eb-elf/lib\libyaul.a(vdp2_scrn_priority.o)
 .data          0x0000000006053d66        0x0 d:/projects/saturn/yaul/opt/x-tools/sh2eb-elf/bin/../lib/gcc/sh2eb-elf/8.3.0/../../../../sh2eb-elf/lib\libyaul.a(vdp2_scrn_reduction.o)
 .data          0x0000000006053d66        0x0 d:/projects/saturn/yaul/opt/x-tools/sh2eb-elf/bin/../lib/gcc/sh2eb-elf/8.3.0/../../../../sh2eb-elf/lib\libyaul.a(vdp2_scrn_scroll.o)
 .data          0x0000000006053d66        0x0 d:/projects/saturn/yaul/opt/x-tools/sh2eb-elf/bin/../lib/gcc/sh2eb-elf/8.3.0/../../../../sh2eb-elf/lib\libyaul.a(vdp2_tvmd.o)
 .data          0x0000000006053d66        0x0 d:/projects/saturn/yaul/opt/x-tools/sh2eb-elf/bin/../lib/gcc/sh2eb-elf/8.3.0/../../../../sh2eb-elf/lib\libyaul.a(vdp2_vram.o)
 .data          0x0000000006053d66        0x0 d:/projects/saturn/yaul/opt/x-tools/sh2eb-elf/bin/../lib/gcc/sh2eb-elf/8.3.0/../../../../sh2eb-elf/lib\libyaul.a(cpu_cache.o)
 *fill*         0x0000000006053d66        0x2 
 .data          0x0000000006053d68       0x10 d:/projects/saturn/yaul/opt/x-tools/sh2eb-elf/bin/../lib/gcc/sh2eb-elf/8.3.0/../../../../sh2eb-elf/lib\libyaul.a(cpu_dmac.o)
 .data          0x0000000006053d78        0x4 d:/projects/saturn/yaul/opt/x-tools/sh2eb-elf/bin/../lib/gcc/sh2eb-elf/8.3.0/../../../../sh2eb-elf/lib\libyaul.a(cpu_dual.o)
 .data          0x0000000006053d7c       0x20 d:/projects/saturn/yaul/opt/x-tools/sh2eb-elf/bin/../lib/gcc/sh2eb-elf/8.3.0/../../../../sh2eb-elf/lib\libyaul.a(cpu_frt.o)
 .data          0x0000000006053d9c        0x0 d:/projects/saturn/yaul/opt/x-tools/sh2eb-elf/bin/../lib/gcc/sh2eb-elf/8.3.0/../../../../sh2eb-elf/lib\libyaul.a(cpu_init.o)
 .data          0x0000000006053d9c        0x8 d:/projects/saturn/yaul/opt/x-tools/sh2eb-elf/bin/../lib/gcc/sh2eb-elf/8.3.0/../../../../sh2eb-elf/lib\libyaul.a(cpu_wdt.o)
 .data          0x0000000006053da4        0x0 d:/projects/saturn/yaul/opt/x-tools/sh2eb-elf/bin/../lib/gcc/sh2eb-elf/8.3.0/../../../../sh2eb-elf/lib\libyaul.a(smpc_init.o)
 .data          0x0000000006053da4       0x18 d:/projects/saturn/yaul/opt/x-tools/sh2eb-elf/bin/../lib/gcc/sh2eb-elf/8.3.0/../../../../sh2eb-elf/lib\libyaul.a(smpc_peripheral_init.o)
 .data          0x0000000006053dbc        0x0 d:/projects/saturn/yaul/opt/x-tools/sh2eb-elf/bin/../lib/gcc/sh2eb-elf/8.3.0/../../../../sh2eb-elf/lib\libyaul.a(scu_init.o)
 .data          0x0000000006053dbc        0x0 d:/projects/saturn/yaul/opt/x-tools/sh2eb-elf/bin/../lib/gcc/sh2eb-elf/8.3.0/../../../../sh2eb-elf/lib\libyaul.a(scu_dma.o)
 .data          0x0000000006053dbc        0x5 d:/projects/saturn/yaul/opt/x-tools/sh2eb-elf/bin/../lib/gcc/sh2eb-elf/8.3.0/../../../../sh2eb-elf/lib\libyaul.a(scu_dsp.o)
 .data          0x0000000006053dc1        0x0 d:/projects/saturn/yaul/opt/x-tools/sh2eb-elf/bin/../lib/gcc/sh2eb-elf/8.3.0/../../../../sh2eb-elf/lib\libyaul.a(scu_timer.o)
 .data          0x0000000006053dc1        0x0 d:/projects/saturn/yaul/opt/x-tools/sh2eb-elf/bin/../lib/gcc/sh2eb-elf/8.3.0/../../../../sh2eb-elf/lib\libyaul.a(internal.o)
 .data          0x0000000006053dc1        0x0 d:/projects/saturn/yaul/opt/x-tools/sh2eb-elf/bin/../lib/gcc/sh2eb-elf/8.3.0/../../../../sh2eb-elf/lib\libyaul.a(internal_reset.o)
 .data          0x0000000006053dc1        0x0 d:/projects/saturn/yaul/opt/x-tools/sh2eb-elf/bin/../lib/gcc/sh2eb-elf/8.3.0/../../../../sh2eb-elf/lib\libyaul.a(callback-list.o)
 .data          0x0000000006053dc1        0x0 d:/projects/saturn/yaul/opt/x-tools/sh2eb-elf/bin/../lib/gcc/sh2eb-elf/8.3.0/../../../../sh2eb-elf/lib\libyaul.a(memb.o)
 .data          0x0000000006053dc1        0x0 d:/projects/saturn/yaul/opt/x-tools/sh2eb-elf/bin/../lib/gcc/sh2eb-elf/8.3.0/../../../../sh2eb-elf/lib\libyaul.a(stpcpy.o)
 .data          0x0000000006053dc1        0x0 d:/projects/saturn/yaul/opt/x-tools/sh2eb-elf/bin/../lib/gcc/sh2eb-elf/8.3.0/../../../../sh2eb-elf/lib\libyaul.a(stpncpy.o)
 .data          0x0000000006053dc1        0x0 d:/projects/saturn/yaul/opt/x-tools/sh2eb-elf/bin/../lib/gcc/sh2eb-elf/8.3.0/../../../../sh2eb-elf/lib\libyaul.a(strnlen.o)
 .data          0x0000000006053dc1        0x0 d:/projects/saturn/yaul/opt/x-tools/sh2eb-elf/bin/../lib/gcc/sh2eb-elf/8.3.0/../../../../sh2eb-elf/lib\libyaul.a(vdp2_sprite.o)
 *fill*         0x0000000006053dc1        0x3 
 .data          0x0000000006053dc4        0x8 d:/projects/saturn/yaul/opt/x-tools/sh2eb-elf/bin/../lib/gcc/sh2eb-elf/8.3.0/../../../../sh2eb-elf/lib\libyaul.a(cpu_divu.o)
 .data          0x0000000006053dcc        0x0 d:/projects/saturn/yaul/opt/x-tools/sh2eb-elf/bin/../lib/gcc/sh2eb-elf/8.3.0/../../../../sh2eb-elf/lib\libyaul.a(memchr.o)
 .data          0x0000000006053dcc        0x0 d:/projects/saturn/yaul/opt/x-tools/sh2eb-elf/bin/../lib/gcc/sh2eb-elf/8.3.0\libgcc.a(_ffssi2.o)
 *(.data.*)
 *(.gnu.linkonce.d.*)
 *(.sdata)
 *(.sdata.*)
 *(.gnu.linkonce.s.*)
                0x0000000006053dd0                . = ALIGN (0x10)
 *fill*         0x0000000006053dcc        0x4 
                0x0000000006053dd0                PROVIDE (__data_end = .)

.bss            0x0000000006053dd0    0xf1c50
                0x0000000006053dd0                PROVIDE (__bss_start = .)
 *(.bss)
 .bss           0x0000000006053dd0        0x0 d:/projects/saturn/yaul/opt/x-tools/sh2eb-elf/bin/../lib/gcc/sh2eb-elf/8.3.0/../../../../sh2eb-elf/lib/crt0.o
 .bss           0x0000000006053dd0        0x8 d:/projects/saturn/yaul/opt/x-tools/sh2eb-elf/bin/../lib/gcc/sh2eb-elf/8.3.0/../../../../sh2eb-elf/lib/init.o
 .bss           0x0000000006053dd8        0x0 d:/projects/saturn/yaul/opt/x-tools/sh2eb-elf/bin/../lib/gcc/sh2eb-elf/8.3.0/../../../../sh2eb-elf/lib/c++-support.o
 .bss           0x0000000006053dd8      0x148 sh2doom-1.10/am_map.o
                0x0000000006053dd8                _automapactive
 .bss           0x0000000006053f20        0x0 sh2doom-1.10/d_items.o
 .bss           0x0000000006053f20       0x18 sh2doom-1.10/d_main.o
                0x0000000006053f20                _singletics
 .bss           0x0000000006053f38        0x4 sh2doom-1.10/d_net.o
 .bss           0x0000000006053f3c        0x0 sh2doom-1.10/doomdef.o
 .bss           0x0000000006053f3c        0x8 sh2doom-1.10/doomstat.o
                0x0000000006053f3c                _language
                0x0000000006053f40                _gamemission
 .bss           0x0000000006053f44        0x0 sh2doom-1.10/dstrings.o
 .bss           0x0000000006053f44        0x4 sh2doom-1.10/f_finale.o
 .bss           0x0000000006053f48       0x14 sh2doom-1.10/f_wipe.o
 .bss           0x0000000006053f5c       0x50 sh2doom-1.10/g_game.o
 .bss           0x0000000006053fac        0x0 sh2doom-1.10/hu_lib.o
 .bss           0x0000000006053fac      0x588 sh2doom-1.10/hu_stuff.o
 .bss           0x0000000006054534        0x0 sh2doom-1.10/i_main.o
 .bss           0x0000000006054534        0x0 sh2doom-1.10/i_net.o
 .bss           0x0000000006054534        0x8 sh2doom-1.10/i_sound.o
                0x0000000006054534                _sndserver
 .bss           0x000000000605453c        0x0 sh2doom-1.10/i_system.o
 .bss           0x000000000605453c        0x8 sh2doom-1.10/i_video.o
                0x000000000605453c                _mousemoved
 .bss           0x0000000006054544        0x0 sh2doom-1.10/info.o
 .bss           0x0000000006054544        0x0 sh2doom-1.10/m_bbox.o
 .bss           0x0000000006054544      0x100 sh2doom-1.10/m_cheat.o
 .bss           0x0000000006054644        0x0 sh2doom-1.10/m_fixed.o
 .bss           0x0000000006054644       0x1c sh2doom-1.10/m_menu.o
 .bss           0x0000000006054660        0x0 sh2doom-1.10/m_misc.o
 .bss           0x0000000006054660        0x8 sh2doom-1.10/m_random.o
                0x0000000006054660                _prndindex
                0x0000000006054664                _rndindex
 .bss           0x0000000006054668        0x0 sh2doom-1.10/m_swap.o
 .bss           0x0000000006054668        0x0 sh2doom-1.10/p_ceilng.o
 .bss           0x0000000006054668        0x0 sh2doom-1.10/p_doors.o
 .bss           0x0000000006054668        0x4 sh2doom-1.10/p_enemy.o
 .bss           0x000000000605466c        0x0 sh2doom-1.10/p_floor.o
 .bss           0x000000000605466c        0x0 sh2doom-1.10/p_inter.o
 .bss           0x000000000605466c        0x0 sh2doom-1.10/p_lights.o
 .bss           0x000000000605466c        0x0 sh2doom-1.10/p_map.o
 .bss           0x000000000605466c        0x0 sh2doom-1.10/p_maputl.o
 .bss           0x000000000605466c        0x0 sh2doom-1.10/p_mobj.o
 .bss           0x000000000605466c        0x0 sh2doom-1.10/p_plats.o
 .bss           0x000000000605466c        0x0 sh2doom-1.10/p_pspr.o
 .bss           0x000000000605466c        0x0 sh2doom-1.10/p_saveg.o
 .bss           0x000000000605466c        0x0 sh2doom-1.10/p_setup.o
 .bss           0x000000000605466c        0x0 sh2doom-1.10/p_sight.o
 .bss           0x000000000605466c        0x0 sh2doom-1.10/p_spec.o
 .bss           0x000000000605466c        0x0 sh2doom-1.10/p_switch.o
 .bss           0x000000000605466c        0x0 sh2doom-1.10/p_telept.o
 .bss           0x000000000605466c        0x0 sh2doom-1.10/p_tick.o
 .bss           0x000000000605466c        0x0 sh2doom-1.10/p_user.o
 .bss           0x000000000605466c        0x0 sh2doom-1.10/r_bsp.o
 .bss           0x000000000605466c        0x0 sh2doom-1.10/r_data.o
 .bss           0x000000000605466c        0x4 sh2doom-1.10/r_draw.o
                0x000000000605466c                _fuzzpos
 .bss           0x0000000006054670        0x0 sh2doom-1.10/r_main.o
 .bss           0x0000000006054670        0x0 sh2doom-1.10/r_plane.o
 .bss           0x0000000006054670        0x0 sh2doom-1.10/r_segs.o
 .bss           0x0000000006054670        0x0 sh2doom-1.10/r_sky.o
 .bss           0x0000000006054670        0x0 sh2doom-1.10/r_things.o
 .bss           0x0000000006054670        0xc sh2doom-1.10/s_sound.o
 .bss           0x000000000605467c        0x0 sh2doom-1.10/sounds.o
 .bss           0x000000000605467c        0x0 sh2doom-1.10/st_lib.o
 .bss           0x000000000605467c      0x4b4 sh2doom-1.10/st_stuff.o
 .bss           0x0000000006054b30        0x0 sh2doom-1.10/tables.o
 .bss           0x0000000006054b30        0x0 sh2doom-1.10/v_video.o
 .bss           0x0000000006054b30        0x0 sh2doom-1.10/w_wad.o
 .bss           0x0000000006054b30      0x170 sh2doom-1.10/wi_stuff.o
 .bss           0x0000000006054ca0        0x0 sh2doom-1.10/z_zone.o
 .bss           0x0000000006054ca0        0x0 d:/projects/saturn/yaul/opt/x-tools/sh2eb-elf/bin/../lib/gcc/sh2eb-elf/8.3.0\libgcc.a(_ashiftrt.o)
 .bss           0x0000000006054ca0        0x0 d:/projects/saturn/yaul/opt/x-tools/sh2eb-elf/bin/../lib/gcc/sh2eb-elf/8.3.0\libgcc.a(_ashiftrt_n.o)
 .bss           0x0000000006054ca0        0x0 d:/projects/saturn/yaul/opt/x-tools/sh2eb-elf/bin/../lib/gcc/sh2eb-elf/8.3.0\libgcc.a(_ashiftlt.o)
 .bss           0x0000000006054ca0        0x0 d:/projects/saturn/yaul/opt/x-tools/sh2eb-elf/bin/../lib/gcc/sh2eb-elf/8.3.0\libgcc.a(_movmem.o)
 .bss           0x0000000006054ca0        0x0 d:/projects/saturn/yaul/opt/x-tools/sh2eb-elf/bin/../lib/gcc/sh2eb-elf/8.3.0\libgcc.a(_sdivsi3.o)
 .bss           0x0000000006054ca0        0x0 d:/projects/saturn/yaul/opt/x-tools/sh2eb-elf/bin/../lib/gcc/sh2eb-elf/8.3.0\libgcc.a(_udivsi3.o)
 .bss           0x0000000006054ca0        0x0 d:/projects/saturn/yaul/opt/x-tools/sh2eb-elf/bin/../lib/gcc/sh2eb-elf/8.3.0\libgcc.a(_mul_df.o)
 .bss           0x0000000006054ca0        0x0 d:/projects/saturn/yaul/opt/x-tools/sh2eb-elf/bin/../lib/gcc/sh2eb-elf/8.3.0\libgcc.a(_div_df.o)
 .bss           0x0000000006054ca0        0x0 d:/projects/saturn/yaul/opt/x-tools/sh2eb-elf/bin/../lib/gcc/sh2eb-elf/8.3.0\libgcc.a(_ge_df.o)
 .bss           0x0000000006054ca0        0x0 d:/projects/saturn/yaul/opt/x-tools/sh2eb-elf/bin/../lib/gcc/sh2eb-elf/8.3.0\libgcc.a(_lt_df.o)
 .bss           0x0000000006054ca0        0x0 d:/projects/saturn/yaul/opt/x-tools/sh2eb-elf/bin/../lib/gcc/sh2eb-elf/8.3.0\libgcc.a(_si_to_df.o)
 .bss           0x0000000006054ca0        0x0 d:/projects/saturn/yaul/opt/x-tools/sh2eb-elf/bin/../lib/gcc/sh2eb-elf/8.3.0\libgcc.a(_df_to_si.o)
 .bss           0x0000000006054ca0        0x0 d:/projects/saturn/yaul/opt/x-tools/sh2eb-elf/bin/../lib/gcc/sh2eb-elf/8.3.0\libgcc.a(_thenan_df.o)
 .bss           0x0000000006054ca0        0x0 d:/projects/saturn/yaul/opt/x-tools/sh2eb-elf/bin/../lib/gcc/sh2eb-elf/8.3.0\libgcc.a(_lshrdi3.o)
 .bss           0x0000000006054ca0        0x0 d:/projects/saturn/yaul/opt/x-tools/sh2eb-elf/bin/../lib/gcc/sh2eb-elf/8.3.0\libgcc.a(_ashldi3.o)
 .bss           0x0000000006054ca0        0x0 d:/projects/saturn/yaul/opt/x-tools/sh2eb-elf/bin/../lib/gcc/sh2eb-elf/8.3.0\libgcc.a(_clzsi2.o)
 .bss           0x0000000006054ca0        0x0 d:/projects/saturn/yaul/opt/x-tools/sh2eb-elf/bin/../lib/gcc/sh2eb-elf/8.3.0\libgcc.a(_pack_df.o)
 .bss           0x0000000006054ca0        0x0 d:/projects/saturn/yaul/opt/x-tools/sh2eb-elf/bin/../lib/gcc/sh2eb-elf/8.3.0\libgcc.a(_unpack_df.o)
 .bss           0x0000000006054ca0        0x0 d:/projects/saturn/yaul/opt/x-tools/sh2eb-elf/bin/../lib/gcc/sh2eb-elf/8.3.0\libgcc.a(_fpcmp_parts_df.o)
 .bss           0x0000000006054ca0        0x0 d:/projects/saturn/yaul/opt/x-tools/sh2eb-elf/bin/../lib/gcc/sh2eb-elf/8.3.0\libgcc.a(_lshiftrt.o)
 .bss           0x0000000006054ca0        0x0 d:/projects/saturn/yaul/opt/x-tools/sh2eb-elf/bin/../lib/gcc/sh2eb-elf/8.3.0\libgcc.a(_clz.o)
 .bss           0x0000000006054ca0        0x0 d:/projects/saturn/yaul/opt/x-tools/sh2eb-elf/bin/../lib/gcc/sh2eb-elf/8.3.0/../../../../sh2eb-elf/lib\libyaul.a(internal.o)
 .bss           0x0000000006054ca0        0x4 d:/projects/saturn/yaul/opt/x-tools/sh2eb-elf/bin/../lib/gcc/sh2eb-elf/8.3.0/../../../../sh2eb-elf/lib\libyaul.a(dbgio.o)
 .bss           0x0000000006054ca4        0x0 d:/projects/saturn/yaul/opt/x-tools/sh2eb-elf/bin/../lib/gcc/sh2eb-elf/8.3.0/../../../../sh2eb-elf/lib\libyaul.a(null.o)
 .bss           0x0000000006054ca4       0x34 d:/projects/saturn/yaul/opt/x-tools/sh2eb-elf/bin/../lib/gcc/sh2eb-elf/8.3.0/../../../../sh2eb-elf/lib\libyaul.a(vdp2.o)
 .bss           0x0000000006054cd8        0x4 d:/projects/saturn/yaul/opt/x-tools/sh2eb-elf/bin/../lib/gcc/sh2eb-elf/8.3.0/../../../../sh2eb-elf/lib\libyaul.a(usb-cart.o)
 *fill*         0x0000000006054cdc        0x4 
 .bss           0x0000000006054ce0       0x40 d:/projects/saturn/yaul/opt/x-tools/sh2eb-elf/bin/../lib/gcc/sh2eb-elf/8.3.0/../../../../sh2eb-elf/lib\libyaul.a(cons.o)
 .bss           0x0000000006054d20      0xc40 d:/projects/saturn/yaul/opt/x-tools/sh2eb-elf/bin/../lib/gcc/sh2eb-elf/8.3.0/../../../../sh2eb-elf/lib\libyaul.a(dma-queue.o)
 .bss           0x0000000006055960        0x0 d:/projects/saturn/yaul/opt/x-tools/sh2eb-elf/bin/../lib/gcc/sh2eb-elf/8.3.0/../../../../sh2eb-elf/lib\libyaul.a(tlsf.o)
 .bss           0x0000000006055960        0x0 d:/projects/saturn/yaul/opt/x-tools/sh2eb-elf/bin/../lib/gcc/sh2eb-elf/8.3.0/../../../../sh2eb-elf/lib\libyaul.a(ctype.o)
 .bss           0x0000000006055960        0x0 d:/projects/saturn/yaul/opt/x-tools/sh2eb-elf/bin/../lib/gcc/sh2eb-elf/8.3.0/../../../../sh2eb-elf/lib\libyaul.a(memcpy.o)
 .bss           0x0000000006055960        0x0 d:/projects/saturn/yaul/opt/x-tools/sh2eb-elf/bin/../lib/gcc/sh2eb-elf/8.3.0/../../../../sh2eb-elf/lib\libyaul.a(memset.o)
 .bss           0x0000000006055960        0x0 d:/projects/saturn/yaul/opt/x-tools/sh2eb-elf/bin/../lib/gcc/sh2eb-elf/8.3.0/../../../../sh2eb-elf/lib\libyaul.a(strcasestr.o)
 .bss           0x0000000006055960        0x0 d:/projects/saturn/yaul/opt/x-tools/sh2eb-elf/bin/../lib/gcc/sh2eb-elf/8.3.0/../../../../sh2eb-elf/lib\libyaul.a(strcat.o)
 .bss           0x0000000006055960        0x0 d:/projects/saturn/yaul/opt/x-tools/sh2eb-elf/bin/../lib/gcc/sh2eb-elf/8.3.0/../../../../sh2eb-elf/lib\libyaul.a(strcmp.o)
 .bss           0x0000000006055960        0x0 d:/projects/saturn/yaul/opt/x-tools/sh2eb-elf/bin/../lib/gcc/sh2eb-elf/8.3.0/../../../../sh2eb-elf/lib\libyaul.a(strcpy.o)
 .bss           0x0000000006055960        0x0 d:/projects/saturn/yaul/opt/x-tools/sh2eb-elf/bin/../lib/gcc/sh2eb-elf/8.3.0/../../../../sh2eb-elf/lib\libyaul.a(strlen.o)
 .bss           0x0000000006055960        0x0 d:/projects/saturn/yaul/opt/x-tools/sh2eb-elf/bin/../lib/gcc/sh2eb-elf/8.3.0/../../../../sh2eb-elf/lib\libyaul.a(strncasecmp.o)
 .bss           0x0000000006055960        0x0 d:/projects/saturn/yaul/opt/x-tools/sh2eb-elf/bin/../lib/gcc/sh2eb-elf/8.3.0/../../../../sh2eb-elf/lib\libyaul.a(strncmp.o)
 .bss           0x0000000006055960        0x0 d:/projects/saturn/yaul/opt/x-tools/sh2eb-elf/bin/../lib/gcc/sh2eb-elf/8.3.0/../../../../sh2eb-elf/lib\libyaul.a(strncpy.o)
 .bss           0x0000000006055960        0x0 d:/projects/saturn/yaul/opt/x-tools/sh2eb-elf/bin/../lib/gcc/sh2eb-elf/8.3.0/../../../../sh2eb-elf/lib\libyaul.a(snprintf.o)
 .bss           0x0000000006055960        0x0 d:/projects/saturn/yaul/opt/x-tools/sh2eb-elf/bin/../lib/gcc/sh2eb-elf/8.3.0/../../../../sh2eb-elf/lib\libyaul.a(abort.o)
 .bss           0x0000000006055960        0x0 d:/projects/saturn/yaul/opt/x-tools/sh2eb-elf/bin/../lib/gcc/sh2eb-elf/8.3.0/../../../../sh2eb-elf/lib\libyaul.a(abs.o)
 .bss           0x0000000006055960        0x4 d:/projects/saturn/yaul/opt/x-tools/sh2eb-elf/bin/../lib/gcc/sh2eb-elf/8.3.0/../../../../sh2eb-elf/lib\libyaul.a(assert.o)
 .bss           0x0000000006055964        0x0 d:/projects/saturn/yaul/opt/x-tools/sh2eb-elf/bin/../lib/gcc/sh2eb-elf/8.3.0/../../../../sh2eb-elf/lib\libyaul.a(free.o)
 .bss           0x0000000006055964        0x0 d:/projects/saturn/yaul/opt/x-tools/sh2eb-elf/bin/../lib/gcc/sh2eb-elf/8.3.0/../../../../sh2eb-elf/lib\libyaul.a(malloc.o)
 .bss           0x0000000006055964        0x5 d:/projects/saturn/yaul/opt/x-tools/sh2eb-elf/bin/../lib/gcc/sh2eb-elf/8.3.0/../../../../sh2eb-elf/lib\libyaul.a(dram-cart.o)
 .bss           0x0000000006055969        0x0 d:/projects/saturn/yaul/opt/x-tools/sh2eb-elf/bin/../lib/gcc/sh2eb-elf/8.3.0/../../../../sh2eb-elf/lib\libyaul.a(vdp_init.o)
 *fill*         0x0000000006055969        0x3 
 .bss           0x000000000605596c       0x24 d:/projects/saturn/yaul/opt/x-tools/sh2eb-elf/bin/../lib/gcc/sh2eb-elf/8.3.0/../../../../sh2eb-elf/lib\libyaul.a(vdp_sync.o)
 .bss           0x0000000006055990        0x0 d:/projects/saturn/yaul/opt/x-tools/sh2eb-elf/bin/../lib/gcc/sh2eb-elf/8.3.0/../../../../sh2eb-elf/lib\libyaul.a(vdp-internal.o)
 .bss           0x0000000006055990        0x0 d:/projects/saturn/yaul/opt/x-tools/sh2eb-elf/bin/../lib/gcc/sh2eb-elf/8.3.0/../../../../sh2eb-elf/lib\libyaul.a(vdp1_env.o)
 .bss           0x0000000006055990        0x0 d:/projects/saturn/yaul/opt/x-tools/sh2eb-elf/bin/../lib/gcc/sh2eb-elf/8.3.0/../../../../sh2eb-elf/lib\libyaul.a(vdp1_vram.o)
 .bss           0x0000000006055990        0x0 d:/projects/saturn/yaul/opt/x-tools/sh2eb-elf/bin/../lib/gcc/sh2eb-elf/8.3.0/../../../../sh2eb-elf/lib\libyaul.a(vdp2_cram.o)
 .bss           0x0000000006055990        0x0 d:/projects/saturn/yaul/opt/x-tools/sh2eb-elf/bin/../lib/gcc/sh2eb-elf/8.3.0/../../../../sh2eb-elf/lib\libyaul.a(vdp2_scrn.o)
 .bss           0x0000000006055990        0x0 d:/projects/saturn/yaul/opt/x-tools/sh2eb-elf/bin/../lib/gcc/sh2eb-elf/8.3.0/../../../../sh2eb-elf/lib\libyaul.a(vdp2_scrn_back_screen.o)
 .bss           0x0000000006055990        0x0 d:/projects/saturn/yaul/opt/x-tools/sh2eb-elf/bin/../lib/gcc/sh2eb-elf/8.3.0/../../../../sh2eb-elf/lib\libyaul.a(vdp2_scrn_display.o)
 .bss           0x0000000006055990        0x0 d:/projects/saturn/yaul/opt/x-tools/sh2eb-elf/bin/../lib/gcc/sh2eb-elf/8.3.0/../../../../sh2eb-elf/lib\libyaul.a(vdp2_scrn_priority.o)
 .bss           0x0000000006055990        0x0 d:/projects/saturn/yaul/opt/x-tools/sh2eb-elf/bin/../lib/gcc/sh2eb-elf/8.3.0/../../../../sh2eb-elf/lib\libyaul.a(vdp2_scrn_reduction.o)
 .bss           0x0000000006055990        0x0 d:/projects/saturn/yaul/opt/x-tools/sh2eb-elf/bin/../lib/gcc/sh2eb-elf/8.3.0/../../../../sh2eb-elf/lib\libyaul.a(vdp2_scrn_scroll.o)
 .bss           0x0000000006055990        0x0 d:/projects/saturn/yaul/opt/x-tools/sh2eb-elf/bin/../lib/gcc/sh2eb-elf/8.3.0/../../../../sh2eb-elf/lib\libyaul.a(vdp2_tvmd.o)
 .bss           0x0000000006055990        0x0 d:/projects/saturn/yaul/opt/x-tools/sh2eb-elf/bin/../lib/gcc/sh2eb-elf/8.3.0/../../../../sh2eb-elf/lib\libyaul.a(vdp2_vram.o)
 .bss           0x0000000006055990        0x0 d:/projects/saturn/yaul/opt/x-tools/sh2eb-elf/bin/../lib/gcc/sh2eb-elf/8.3.0/../../../../sh2eb-elf/lib\libyaul.a(cpu_cache.o)
 .bss           0x0000000006055990        0x0 d:/projects/saturn/yaul/opt/x-tools/sh2eb-elf/bin/../lib/gcc/sh2eb-elf/8.3.0/../../../../sh2eb-elf/lib\libyaul.a(cpu_dmac.o)
 .bss           0x0000000006055990        0x0 d:/projects/saturn/yaul/opt/x-tools/sh2eb-elf/bin/../lib/gcc/sh2eb-elf/8.3.0/../../../../sh2eb-elf/lib\libyaul.a(cpu_dual.o)
 .bss           0x0000000006055990        0x0 d:/projects/saturn/yaul/opt/x-tools/sh2eb-elf/bin/../lib/gcc/sh2eb-elf/8.3.0/../../../../sh2eb-elf/lib\libyaul.a(cpu_frt.o)
 .bss           0x0000000006055990      0x400 d:/projects/saturn/yaul/opt/x-tools/sh2eb-elf/bin/../lib/gcc/sh2eb-elf/8.3.0/../../../../sh2eb-elf/lib\libyaul.a(cpu_init.o)
 .bss           0x0000000006055d90        0x0 d:/projects/saturn/yaul/opt/x-tools/sh2eb-elf/bin/../lib/gcc/sh2eb-elf/8.3.0/../../../../sh2eb-elf/lib\libyaul.a(cpu_wdt.o)
 .bss           0x0000000006055d90        0x0 d:/projects/saturn/yaul/opt/x-tools/sh2eb-elf/bin/../lib/gcc/sh2eb-elf/8.3.0/../../../../sh2eb-elf/lib\libyaul.a(smpc_init.o)
 .bss           0x0000000006055d90     0x2341 d:/projects/saturn/yaul/opt/x-tools/sh2eb-elf/bin/../lib/gcc/sh2eb-elf/8.3.0/../../../../sh2eb-elf/lib\libyaul.a(smpc_peripheral_init.o)
 .bss           0x00000000060580d1        0x0 d:/projects/saturn/yaul/opt/x-tools/sh2eb-elf/bin/../lib/gcc/sh2eb-elf/8.3.0/../../../../sh2eb-elf/lib\libyaul.a(scu_init.o)
 .bss           0x00000000060580d1        0x0 d:/projects/saturn/yaul/opt/x-tools/sh2eb-elf/bin/../lib/gcc/sh2eb-elf/8.3.0/../../../../sh2eb-elf/lib\libyaul.a(scu_dma.o)
 .bss           0x00000000060580d1        0x1 d:/projects/saturn/yaul/opt/x-tools/sh2eb-elf/bin/../lib/gcc/sh2eb-elf/8.3.0/../../../../sh2eb-elf/lib\libyaul.a(scu_dsp.o)
 .bss           0x00000000060580d2        0x0 d:/projects/saturn/yaul/opt/x-tools/sh2eb-elf/bin/../lib/gcc/sh2eb-elf/8.3.0/../../../../sh2eb-elf/lib\libyaul.a(scu_timer.o)
 .bss           0x00000000060580d2        0x0 d:/projects/saturn/yaul/opt/x-tools/sh2eb-elf/bin/../lib/gcc/sh2eb-elf/8.3.0/../../../../sh2eb-elf/lib\libyaul.a(internal.o)
 .bss           0x00000000060580d2        0x0 d:/projects/saturn/yaul/opt/x-tools/sh2eb-elf/bin/../lib/gcc/sh2eb-elf/8.3.0/../../../../sh2eb-elf/lib\libyaul.a(internal_reset.o)
 .bss           0x00000000060580d2        0x0 d:/projects/saturn/yaul/opt/x-tools/sh2eb-elf/bin/../lib/gcc/sh2eb-elf/8.3.0/../../../../sh2eb-elf/lib\libyaul.a(callback-list.o)
 .bss           0x00000000060580d2        0x0 d:/projects/saturn/yaul/opt/x-tools/sh2eb-elf/bin/../lib/gcc/sh2eb-elf/8.3.0/../../../../sh2eb-elf/lib\libyaul.a(memb.o)
 .bss           0x00000000060580d2        0x0 d:/projects/saturn/yaul/opt/x-tools/sh2eb-elf/bin/../lib/gcc/sh2eb-elf/8.3.0/../../../../sh2eb-elf/lib\libyaul.a(stpcpy.o)
 .bss           0x00000000060580d2        0x0 d:/projects/saturn/yaul/opt/x-tools/sh2eb-elf/bin/../lib/gcc/sh2eb-elf/8.3.0/../../../../sh2eb-elf/lib\libyaul.a(stpncpy.o)
 .bss           0x00000000060580d2        0x0 d:/projects/saturn/yaul/opt/x-tools/sh2eb-elf/bin/../lib/gcc/sh2eb-elf/8.3.0/../../../../sh2eb-elf/lib\libyaul.a(strnlen.o)
 .bss           0x00000000060580d2        0x0 d:/projects/saturn/yaul/opt/x-tools/sh2eb-elf/bin/../lib/gcc/sh2eb-elf/8.3.0/../../../../sh2eb-elf/lib\libyaul.a(vdp2_sprite.o)
 .bss           0x00000000060580d2        0x0 d:/projects/saturn/yaul/opt/x-tools/sh2eb-elf/bin/../lib/gcc/sh2eb-elf/8.3.0/../../../../sh2eb-elf/lib\libyaul.a(cpu_divu.o)
 .bss           0x00000000060580d2        0x0 d:/projects/saturn/yaul/opt/x-tools/sh2eb-elf/bin/../lib/gcc/sh2eb-elf/8.3.0/../../../../sh2eb-elf/lib\libyaul.a(memchr.o)
 .bss           0x00000000060580d2        0x0 d:/projects/saturn/yaul/opt/x-tools/sh2eb-elf/bin/../lib/gcc/sh2eb-elf/8.3.0\libgcc.a(_ffssi2.o)
 *(.bss.*)
 *(.gnu.linkonce.b.*)
 *(.sbss)
 *(.sbss.*)
 *(.gnu.linkonce.sb.*)
 *(.scommon)
 *(COMMON)
 *fill*         0x00000000060580d2        0x2 
 COMMON         0x00000000060580d4     0x1110 sh2doom-1.10/d_main.o
                0x00000000060580d4                _events
                0x00000000060584d4                _startskill
                0x00000000060584d8                _eventhead
                0x00000000060584dc                _devparm
                0x00000000060584e0                _title
                0x0000000006058560                _pagetic
                0x0000000006058564                _respawnparm
                0x0000000006058568                _startepisode
                0x000000000605856c                _wadfile
                0x000000000605896c                _advancedemo
                0x0000000006058970                _drone
                0x0000000006058974                _demosequence
                0x0000000006058978                _mapdir
                0x0000000006058d78                _basedefault
                0x0000000006059178                _wadfiles
                0x00000000060591c8                _nomonsters
                0x00000000060591cc                _fastparm
                0x00000000060591d0                _debugfile
                0x00000000060591d4                _autostart
                0x00000000060591d8                _eventtail
                0x00000000060591dc                _pagename
                0x00000000060591e0                _startmap
 COMMON         0x00000000060591e4      0x394 sh2doom-1.10/d_net.o
                0x00000000060591e4                _maketic
                0x00000000060591e8                _remoteresend
                0x0000000006059208                _reboundpacket
                0x000000000605920c                _netcmds
                0x000000000605938c                _frametics
                0x000000000605939c                _netbuffer
                0x00000000060593a0                _oldnettics
                0x00000000060593a4                _localcmds
                0x0000000006059404                _gametime
                0x0000000006059408                _resendto
                0x0000000006059428                _maxsend
                0x000000000605942c                _lastnettic
                0x0000000006059430                _nodeforplayer
                0x0000000006059440                _frameon
                0x0000000006059444                _exitmsg
                0x0000000006059494                _reboundstore
                0x00000000060594fc                _nettics
                0x000000000605951c                _skiptics
                0x0000000006059520                _doomcom
                0x0000000006059524                _resendcount
                0x0000000006059544                _ticdup
                0x0000000006059548                _frameskip
                0x0000000006059558                _nodeingame
 COMMON         0x0000000006059578        0x4 sh2doom-1.10/doomstat.o
                0x0000000006059578                _modifiedgame
 COMMON         0x000000000605957c       0x2c sh2doom-1.10/f_finale.o
                0x000000000605957c                _finalestage
                0x0000000006059580                _caststate
                0x0000000006059584                _castdeath
                0x0000000006059588                _castonmelee
                0x000000000605958c                _finaletext
                0x0000000006059590                _castattacking
                0x0000000006059594                _finalecount
                0x0000000006059598                _castframes
                0x000000000605959c                _castnum
                0x00000000060595a0                _casttics
                0x00000000060595a4                _finaleflat
 COMMON         0x00000000060595a8      0xc8c sh2doom-1.10/g_game.o
                0x00000000060595a8                _key_down
                0x00000000060595ac                _gamekeydown
                0x00000000060599ac                _savebuffer
                0x00000000060599b0                _netgame
                0x00000000060599b4                _joyarray
                0x00000000060599c8                _key_fire
                0x00000000060599cc                _mousey
                0x00000000060599d0                _paused
                0x00000000060599d4                _secretexit
                0x00000000060599d8                _dclicktime
                0x00000000060599dc                _demoname
                0x00000000060599fc                _players
                0x0000000006059e5c                _singledemo
                0x0000000006059e60                _gamemap
                0x0000000006059e64                _key_straferight
                0x0000000006059e68                _joybspeed
                0x0000000006059e6c                _bodyque
                0x0000000006059eec                _dclicks2
                0x0000000006059ef0                _gametic
                0x0000000006059ef4                _mousearray
                0x0000000006059f04                _joyxmove
                0x0000000006059f08                _demoplayback
                0x0000000006059f0c                _joyymove
                0x0000000006059f10                _savename
                0x000000000605a010                _sendpause
                0x000000000605a014                _totalkills
                0x000000000605a018                _key_speed
                0x000000000605a01c                _joybstrafe
                0x000000000605a020                _consistancy
                0x000000000605a080                _d_skill
                0x000000000605a084                _viewactive
                0x000000000605a088                _respawnmonsters
                0x000000000605a08c                _key_right
                0x000000000605a090                _turnheld
                0x000000000605a094                _usergame
                0x000000000605a098                _key_up
                0x000000000605a09c                _starttime
                0x000000000605a0a0                _gameaction
                0x000000000605a0a4                _dclicktime2
                0x000000000605a0a8                _key_strafeleft
                0x000000000605a0ac                _dclicks
                0x000000000605a0b0                _demo_p
                0x000000000605a0b4                _gamestate
                0x000000000605a0b8                _gameskill
                0x000000000605a0bc                _wminfo
                0x000000000605a184                _d_map
                0x000000000605a188                _timingdemo
                0x000000000605a18c                _demorecording
                0x000000000605a190                _key_use
                0x000000000605a194                _demoend
                0x000000000605a198                _displayplayer
                0x000000000605a19c                _playeringame
                0x000000000605a1ac                _mousebfire
                0x000000000605a1b0                _netdemo
                0x000000000605a1b4                _sendsave
                0x000000000605a1b8                _joybfire
                0x000000000605a1bc                _gameepisode
                0x000000000605a1c0                _mousebforward
                0x000000000605a1c4                _nodrawers
                0x000000000605a1c8                _totalsecret
                0x000000000605a1cc                _mousebstrafe
                0x000000000605a1d0                _noblit
                0x000000000605a1d4                _joybuse
                0x000000000605a1d8                _bodyqueslot
                0x000000000605a1dc                _demobuffer
                0x000000000605a1e0                _levelstarttic
                0x000000000605a1e4                _totalitems
                0x000000000605a1e8                _d_episode
                0x000000000605a1ec                _deathmatch
                0x000000000605a1f0                _statcopy
                0x000000000605a1f4                _key_strafe
                0x000000000605a1f8                _dclickstate
                0x000000000605a1fc                _mousex
                0x000000000605a200                _key_left
                0x000000000605a204                _defdemoname
                0x000000000605a208                _consoleplayer
                0x000000000605a20c                _savedescription
                0x000000000605a22c                _savegameslot
                0x000000000605a230                _dclickstate2
 COMMON         0x000000000605a234      0x10c sh2doom-1.10/hu_stuff.o
                0x000000000605a234                _shiftxform
                0x000000000605a238                _hu_font
                0x000000000605a334                _chat_on
                0x000000000605a338                _chat_char
                0x000000000605a33c                _message_dontfuckwithme
 COMMON         0x000000000605a340    0x216d8 sh2doom-1.10/i_sound.o
                0x000000000605a340                _channelleftvol_lookup
                0x000000000605a360                _channelids
                0x000000000605a380                _mixbuffer
                0x000000000605b380                _vol_lookup
                0x000000000607b380                _channelstep
                0x000000000607b3a0                _lengths
                0x000000000607b554                _channelrightvol_lookup
                0x000000000607b574                _steptable
                0x000000000607b974                _channelstart
                0x000000000607b994                _channelhandles
                0x000000000607b9b4                _channels
                0x000000000607b9d4                _channelsend
                0x000000000607b9f4                _channelstepremainder
                0x000000000607ba14                _audio_fd
 COMMON         0x000000000607ba18        0x8 sh2doom-1.10/i_system.o
                0x000000000607ba18                _emptycmd
 COMMON         0x000000000607ba20    0x80410 sh2doom-1.10/i_video.o
                0x000000000607ba20                _inited
                0x000000000607ba24                _grabMouse
                0x000000000607ba28                _shmFinished
                0x000000000607ba2c                _doShm
                0x000000000607ba30                _exptable2
                0x00000000060fba30                _exptable
 COMMON         0x00000000060fbe30      0x274 sh2doom-1.10/m_menu.o
                0x00000000060fbe30                _load_e
                0x00000000060fbe34                _skullAnimCounter
                0x00000000060fbe38                _messageLastMenuActive
                0x00000000060fbe3c                _messageRoutine
                0x00000000060fbe40                _mouseSensitivity
                0x00000000060fbe44                _main_e
                0x00000000060fbe48                _saveStringEnter
                0x00000000060fbe4c                _menuactive
                0x00000000060fbe50                _saveSlot
                0x00000000060fbe54                _screenblocks
                0x00000000060fbe58                _newgame_e
                0x00000000060fbe5c                _messageNeedsInput
                0x00000000060fbe60                _read_e2
                0x00000000060fbe64                _messageString
                0x00000000060fbe68                _options_e
                0x00000000060fbe6c                _quickSaveSlot
                0x00000000060fbe70                _messageToPrint
                0x00000000060fbe74                _detailLevel
                0x00000000060fbe78                _sound_e
                0x00000000060fbe7c                _currentMenu
                0x00000000060fbe80                _whichSkull
                0x00000000060fbe84                _messx
                0x00000000060fbe88                _screenSize
                0x00000000060fbe8c                _endstring
                0x00000000060fbf2c                _itemOn
                0x00000000060fbf30                _showMessages
                0x00000000060fbf34                _saveOldString
                0x00000000060fbf4c                _inhelpscreens
                0x00000000060fbf50                _messy
                0x00000000060fbf54                _saveCharIndex
                0x00000000060fbf58                _read_e
                0x00000000060fbf5c                _tempstring
                0x00000000060fbfac                _epi
                0x00000000060fbfb0                _episodes_e
                0x00000000060fbfb4                _savegamestrings
 COMMON         0x00000000060fc0a4       0x10 sh2doom-1.10/m_misc.o
                0x00000000060fc0a4                _usemouse
                0x00000000060fc0a8                _defaultfile
                0x00000000060fc0ac                _usejoystick
                0x00000000060fc0b0                _numdefaults
 COMMON         0x00000000060fc0b4       0x78 sh2doom-1.10/p_ceilng.o
                0x00000000060fc0b4                _activeceilings
 COMMON         0x00000000060fc12c       0x9c sh2doom-1.10/p_enemy.o
                0x00000000060fc12c                _viletryy
                0x00000000060fc130                _braintargeton
                0x00000000060fc134                _corpsehit
                0x00000000060fc138                _vileobj
                0x00000000060fc13c                _soundtarget
                0x00000000060fc140                _braintargets
                0x00000000060fc1c0                _viletryx
                0x00000000060fc1c4                _numbraintargets
 COMMON         0x00000000060fc1c8       0xa4 sh2doom-1.10/p_map.o
                0x00000000060fc1c8                _crushchange
                0x00000000060fc1cc                _shootz
                0x00000000060fc1d0                _tmflags
                0x00000000060fc1d4                _secondslideline
                0x00000000060fc1d8                _tmx
                0x00000000060fc1dc                _tmbbox
                0x00000000060fc1ec                _shootthing
                0x00000000060fc1f0                _numspechit
                0x00000000060fc1f4                _slidemo
                0x00000000060fc1f8                _bestslideline
                0x00000000060fc1fc                _tmdropoffz
                0x00000000060fc200                _tmxmove
                0x00000000060fc204                _attackrange
                0x00000000060fc208                _bombsource
                0x00000000060fc20c                _secondslidefrac
                0x00000000060fc210                _bombdamage
                0x00000000060fc214                _nofit
                0x00000000060fc218                _usething
                0x00000000060fc21c                _tmymove
                0x00000000060fc220                _tmy
                0x00000000060fc224                _bestslidefrac
                0x00000000060fc228                _bombspot
                0x00000000060fc22c                _tmthing
                0x00000000060fc230                _aimslope
                0x00000000060fc234                _spechit
                0x00000000060fc254                _tmfloorz
                0x00000000060fc258                _tmceilingz
                0x00000000060fc25c                _ceilingline
                0x00000000060fc260                _linetarget
                0x00000000060fc264                _la_damage
                0x00000000060fc268                _floatok
 COMMON         0x00000000060fc26c      0x62c sh2doom-1.10/p_maputl.o
                0x00000000060fc26c                _intercepts
                0x00000000060fc86c                _intercept_p
                0x00000000060fc870                _ptflags
                0x00000000060fc874                _lowfloor
                0x00000000060fc878                _openrange
                0x00000000060fc87c                _trace
                0x00000000060fc88c                _earlyout
                0x00000000060fc890                _openbottom
                0x00000000060fc894                _opentop
 COMMON         0x00000000060fc898      0x70c sh2doom-1.10/p_mobj.o
                0x00000000060fc898                _test
                0x00000000060fc89c                _iquehead
                0x00000000060fc8a0                _itemrespawnque
                0x00000000060fcda0                _itemrespawntime
                0x00000000060fcfa0                _iquetail
 COMMON         0x00000000060fcfa4       0x78 sh2doom-1.10/p_plats.o
                0x00000000060fcfa4                _activeplats
 COMMON         0x00000000060fd01c        0xc sh2doom-1.10/p_pspr.o
                0x00000000060fd01c                _bulletslope
                0x00000000060fd020                _swingx
                0x00000000060fd024                _swingy
 COMMON         0x00000000060fd028        0x8 sh2doom-1.10/p_saveg.o
                0x00000000060fd028                _specials_e
                0x00000000060fd02c                _save_p
 COMMON         0x00000000060fd030       0xe8 sh2doom-1.10/p_setup.o
                0x00000000060fd030                _deathmatch_p
                0x00000000060fd034                _blockmaplump
                0x00000000060fd038                _rejectmatrix
                0x00000000060fd03c                _bmapwidth
                0x00000000060fd040                _numsubsectors
                0x00000000060fd044                _numlines
                0x00000000060fd048                _lines
                0x00000000060fd04c                _bmaporgx
                0x00000000060fd050                _bmaporgy
                0x00000000060fd054                _numvertexes
                0x00000000060fd058                _deathmatchstarts
                0x00000000060fd0bc                _sides
                0x00000000060fd0c0                _nodes
                0x00000000060fd0c4                _subsectors
                0x00000000060fd0c8                _sectors
                0x00000000060fd0cc                _blockmap
                0x00000000060fd0d0                _playerstarts
                0x00000000060fd0f8                _segs
                0x00000000060fd0fc                _numsectors
                0x00000000060fd100                _vertexes
                0x00000000060fd104                _bmapheight
                0x00000000060fd108                _numsides
                0x00000000060fd10c                _blocklinks
                0x00000000060fd110                _numnodes
                0x00000000060fd114                _numsegs
 COMMON         0x00000000060fd118       0x2c sh2doom-1.10/p_sight.o
                0x00000000060fd118                _t2x
                0x00000000060fd11c                _topslope
                0x00000000060fd120                _bottomslope
                0x00000000060fd124                _sightcounts
                0x00000000060fd12c                _strace
                0x00000000060fd13c                _t2y
                0x00000000060fd140                _sightzstart
 COMMON         0x00000000060fd144      0x390 sh2doom-1.10/p_spec.o
                0x00000000060fd144                _linespeciallist
                0x00000000060fd244                _anims
                0x00000000060fd4c4                _levelTimer
                0x00000000060fd4c8                _numlinespecials
                0x00000000060fd4cc                _lastanim
                0x00000000060fd4d0                _levelTimeCount
 COMMON         0x00000000060fd4d4      0x2d4 sh2doom-1.10/p_switch.o
                0x00000000060fd4d4                _switchlist
                0x00000000060fd664                _buttonlist
                0x00000000060fd7a4                _numswitches
 COMMON         0x00000000060fd7a8       0x10 sh2doom-1.10/p_tick.o
                0x00000000060fd7a8                _thinkercap
                0x00000000060fd7b4                _leveltime
 COMMON         0x00000000060fd7b8        0x4 sh2doom-1.10/p_user.o
                0x00000000060fd7b8                _onground
 COMMON         0x00000000060fd7bc     0x311c sh2doom-1.10/r_bsp.o
                0x00000000060fd7bc                _backsector
                0x00000000060fd7c0                _linedef
                0x00000000060fd7c4                _newend
                0x00000000060fd7c8                _drawsegs
                0x00000000061007c8                _curline
                0x00000000061007cc                _sidedef
                0x00000000061007d0                _frontsector
                0x00000000061007d4                _solidsegs
                0x00000000061008d4                _ds_p
 COMMON         0x00000000061008d8       0x68 sh2doom-1.10/r_data.o
                0x00000000061008d8                _texturewidthmask
                0x00000000061008dc                _numspritelumps
                0x00000000061008e0                _lastspritelump
                0x00000000061008e4                _flattranslation
                0x00000000061008e8                _lastflat
                0x00000000061008ec                _spritewidth
                0x00000000061008f0                _textures
                0x00000000061008f4                _numpatches
                0x00000000061008f8                _numflats
                0x00000000061008fc                _texturecolumnofs
                0x0000000006100900                _texturecolumnlump
                0x0000000006100904                _firstflat
                0x0000000006100908                _firstspritelump
                0x000000000610090c                _spritetopoffset
                0x0000000006100910                _texturecomposite
                0x0000000006100914                _lastpatch
                0x0000000006100918                _firstpatch
                0x000000000610091c                _numtextures
                0x0000000006100920                _textureheight
                0x0000000006100924                _flatmemory
                0x0000000006100928                _texturememory
                0x000000000610092c                _spriteoffset
                0x0000000006100930                _texturecompositesize
                0x0000000006100934                _colormaps
                0x0000000006100938                _spritememory
                0x000000000610093c                _texturetranslation
 COMMON         0x0000000006100940     0x21e8 sh2doom-1.10/r_draw.o
                0x0000000006100940                _ds_x1
                0x0000000006100944                _dc_translation
                0x0000000006100948                _dc_yh
                0x000000000610094c                _ds_yfrac
                0x0000000006100950                _dc_x
                0x0000000006100954                _dc_texturemid
                0x0000000006100958                _ds_ystep
                0x000000000610095c                _columnofs
                0x0000000006101adc                _viewheight
                0x0000000006101ae0                _scaledviewwidth
                0x0000000006101ae4                _ds_x2
                0x0000000006101ae8                _dc_yl
                0x0000000006101aec                _ds_source
                0x0000000006101af0                _viewwindowx
                0x0000000006101af4                _ds_colormap
                0x0000000006101af8                _ylookup
                0x00000000061027f8                _viewwidth
                0x00000000061027fc                _dscount
                0x0000000006102800                _translationtables
                0x0000000006102804                _ds_y
                0x0000000006102808                _dc_colormap
                0x000000000610280c                _translations
                0x0000000006102b0c                _dc_iscale
                0x0000000006102b10                _dc_source
                0x0000000006102b14                _ds_xstep
                0x0000000006102b18                _viewwindowy
                0x0000000006102b1c                _dccount
                0x0000000006102b20                _viewimage
                0x0000000006102b24                _ds_xfrac
 COMMON         0x0000000006102b28     0x7238 sh2doom-1.10/r_main.o
                0x0000000006102b28                _viewz
                0x0000000006102b2c                _linecount
                0x0000000006102b30                _fuzzcolfunc
                0x0000000006102b34                _zlight
                0x0000000006104b34                _extralight
                0x0000000006104b38                _spanfunc
                0x0000000006104b3c                _viewy
                0x0000000006104b40                _projection
                0x0000000006104b44                _loopcount
                0x0000000006104b48                _setsizeneeded
                0x0000000006104b4c                _scalelightfixed
                0x0000000006104c0c                _fixedcolormap
                0x0000000006104c10                _detailshift
                0x0000000006104c14                _scalelight
                0x0000000006105814                _sscount
                0x0000000006105818                _viewangleoffset
                0x000000000610581c                _viewangle
                0x0000000006105820                _setblocks
                0x0000000006105824                _centeryfrac
                0x0000000006105828                _viewx
                0x000000000610582c                _xtoviewangle
                0x0000000006105d30                _transcolfunc
                0x0000000006105d34                _centerx
                0x0000000006105d38                _clipangle
                0x0000000006105d3c                _viewcos
                0x0000000006105d40                _framecount
                0x0000000006105d44                _basecolfunc
                0x0000000006105d48                _viewplayer
                0x0000000006105d4c                _viewangletox
                0x0000000006109d4c                _viewsin
                0x0000000006109d50                _colfunc
                0x0000000006109d54                _setdetail
                0x0000000006109d58                _centerxfrac
                0x0000000006109d5c                _centery
 COMMON         0x0000000006109d60    0x20c08 sh2doom-1.10/r_plane.o
                0x0000000006109d60                _cachedxstep
                0x000000000610a080                _lastopening
                0x000000000610a084                _planezlight
                0x000000000610a088                _visplanes
                0x000000000611ec88                _planeheight
                0x000000000611ec8c                _spanstart
                0x000000000611efac                _lastvisplane
                0x000000000611efb0                _cachedheight
                0x000000000611f2d0                _floorplane
                0x000000000611f2d4                _floorfunc
                0x000000000611f2d8                _spanstop
                0x000000000611f5f8                _floorclip
                0x000000000611f878                _distscale
                0x000000000611fd78                _cachedystep
                0x0000000006120098                _openings
                0x000000000612a098                _basexscale
                0x000000000612a09c                _baseyscale
                0x000000000612a0a0                _ceilingclip
                0x000000000612a320                _cacheddistance
                0x000000000612a640                _ceilingfunc
                0x000000000612a644                _ceilingplane
                0x000000000612a648                _yslope
 COMMON         0x000000000612a968       0x84 sh2doom-1.10/r_segs.o
                0x000000000612a968                _rw_midtexturemid
                0x000000000612a96c                _worldtop
                0x000000000612a970                _markceiling
                0x000000000612a974                _topstep
                0x000000000612a978                _rw_toptexturemid
                0x000000000612a97c                _pixlow
                0x000000000612a980                _rw_stopx
                0x000000000612a984                _worldbottom
                0x000000000612a988                _rw_bottomtexturemid
                0x000000000612a98c                _bottomtexture
                0x000000000612a990                _maskedtexture
                0x000000000612a994                _rw_scale
                0x000000000612a998                _topfrac
                0x000000000612a99c                _pixhighstep
                0x000000000612a9a0                _markfloor
                0x000000000612a9a4                _rw_x
                0x000000000612a9a8                _rw_scalestep
                0x000000000612a9ac                _bottomstep
                0x000000000612a9b0                _rw_normalangle
                0x000000000612a9b4                _rw_angle1
                0x000000000612a9b8                _worldhigh
                0x000000000612a9bc                _worldlow
                0x000000000612a9c0                _pixhigh
                0x000000000612a9c4                _rw_centerangle
                0x000000000612a9c8                _maskedtexturecol
                0x000000000612a9cc                _rw_offset
                0x000000000612a9d0                _toptexture
                0x000000000612a9d4                _walllights
                0x000000000612a9d8                _bottomfrac
                0x000000000612a9dc                _pixlowstep
                0x000000000612a9e0                _segtextured
                0x000000000612a9e4                _rw_distance
                0x000000000612a9e8                _midtexture
 COMMON         0x000000000612a9ec        0xc sh2doom-1.10/r_sky.o
                0x000000000612a9ec                _skyflatnum
                0x000000000612a9f0                _skytexturemid
                0x000000000612a9f4                _skytexture
 COMMON         0x000000000612a9f8     0x26d8 sh2doom-1.10/r_things.o
                0x000000000612a9f8                _sprites
                0x000000000612a9fc                _negonearray
                0x000000000612ac7c                _spryscale
                0x000000000612ac80                _mceilingclip
                0x000000000612ac84                _newvissprite
                0x000000000612ac88                _screenheightarray
                0x000000000612af08                _vissprite_p
                0x000000000612af0c                _sprtopscreen
                0x000000000612af10                _spritelights
                0x000000000612af14                _overflowsprite
                0x000000000612af50                _vsprsortedhead
                0x000000000612af8c                _numsprites
                0x000000000612af90                _maxframe
                0x000000000612af94                _sprtemp
                0x000000000612b2c0                _spritename
                0x000000000612b2c4                _vissprites
                0x000000000612d0c4                _pspritescale
                0x000000000612d0c8                _mfloorclip
                0x000000000612d0cc                _pspriteiscale
 COMMON         0x000000000612d0d0        0x4 sh2doom-1.10/s_sound.o
                0x000000000612d0d0                _numChannels
 COMMON         0x000000000612d0d4        0x4 sh2doom-1.10/st_lib.o
                0x000000000612d0d4                _sttminus
 COMMON         0x000000000612d0d8       0x28 sh2doom-1.10/v_video.o
                0x000000000612d0d8                _dirtybox
                0x000000000612d0e8                _usegamma
                0x000000000612d0ec                _screens
 COMMON         0x000000000612d100    0x186b8 sh2doom-1.10/w_wad.o
                0x000000000612d100                _lumpinfo
                0x000000000612d104                _reloadlump
                0x000000000612d108                _lumpcache
                0x000000000612d10c                _info
                0x00000000061457ac                _profilecount
                0x00000000061457b0                _reloadname
                0x00000000061457b4                _numlumps
 COMMON         0x00000000061457b8        0x4 sh2doom-1.10/z_zone.o
                0x00000000061457b8                _mainzone
 *fill*         0x00000000061457bc        0x4 
 COMMON         0x00000000061457c0       0x18 d:/projects/saturn/yaul/opt/x-tools/sh2eb-elf/bin/../lib/gcc/sh2eb-elf/8.3.0/../../../../sh2eb-elf/lib\libyaul.a(internal.o)
                0x00000000061457c0                __internal_master_state
                0x00000000061457d0                __internal_slave_state
 COMMON         0x00000000061457d8        0x4 d:/projects/saturn/yaul/opt/x-tools/sh2eb-elf/bin/../lib/gcc/sh2eb-elf/8.3.0/../../../../sh2eb-elf/lib\libyaul.a(null.o)
                0x00000000061457d8                __default_params
 *fill*         0x00000000061457dc       0x24 
 COMMON         0x0000000006145800      0x200 d:/projects/saturn/yaul/opt/x-tools/sh2eb-elf/bin/../lib/gcc/sh2eb-elf/8.3.0/../../../../sh2eb-elf/lib\libyaul.a(vdp-internal.o)
                0x0000000006145800                __internal_state_vdp1
                0x0000000006145840                __internal_state_vdp2
 COMMON         0x0000000006145a00       0x20 d:/projects/saturn/yaul/opt/x-tools/sh2eb-elf/bin/../lib/gcc/sh2eb-elf/8.3.0/../../../../sh2eb-elf/lib\libyaul.a(smpc_peripheral_init.o)
                0x0000000006145a00                _time
                0x0000000006145a08                _smpc_peripheral_port_2
                0x0000000006145a14                _smpc_peripheral_port_1
                0x0000000006145a20                . = ALIGN (0x10)
                0x0000000006145a20                PROVIDE (__bss_end = .)
                0x0000000006145a20                __bss_end__ = .

.uncached       0x0000000026145a20       0x30 load address 0x0000000006145a20
                [!provide]                        PROVIDE (__uncached_start = .)
 *(.uncached)
 .uncached      0x0000000026145a20       0x28 d:/projects/saturn/yaul/opt/x-tools/sh2eb-elf/bin/../lib/gcc/sh2eb-elf/8.3.0/../../../../sh2eb-elf/lib\libyaul.a(cpu_cache.o)
                0x0000000026145a20                _cpu_cache_purge_line
                0x0000000026145a30                _cpu_cache_purge
 .uncached      0x0000000026145a48        0x4 d:/projects/saturn/yaul/opt/x-tools/sh2eb-elf/bin/../lib/gcc/sh2eb-elf/8.3.0/../../../../sh2eb-elf/lib\libyaul.a(cpu_dual.o)
                0x0000000026145a50                . = ALIGN (0x10)
 *fill*         0x0000000026145a4c        0x4 
                [!provide]                        PROVIDE (__uncached_end = .)
                0x0000000006145a50                __end = (__bss_end + SIZEOF (.uncached))
                [!provide]                        PROVIDE (_end = (__bss_end + SIZEOF (.uncached)))
LOAD d:/projects/saturn/yaul/opt/x-tools/sh2eb-elf/bin/../lib/gcc/sh2eb-elf/8.3.0/../../../../sh2eb-elf/lib/crt0.o
LOAD d:/projects/saturn/yaul/opt/x-tools/sh2eb-elf/bin/../lib/gcc/sh2eb-elf/8.3.0/../../../../sh2eb-elf/lib/init.o
LOAD d:/projects/saturn/yaul/opt/x-tools/sh2eb-elf/bin/../lib/gcc/sh2eb-elf/8.3.0/../../../../sh2eb-elf/lib/c++-support.o
LOAD sh2doom-1.10/am_map.o
LOAD sh2doom-1.10/d_items.o
LOAD sh2doom-1.10/d_main.o
LOAD sh2doom-1.10/d_net.o
LOAD sh2doom-1.10/doomdef.o
LOAD sh2doom-1.10/doomstat.o
LOAD sh2doom-1.10/dstrings.o
LOAD sh2doom-1.10/f_finale.o
LOAD sh2doom-1.10/f_wipe.o
LOAD sh2doom-1.10/g_game.o
LOAD sh2doom-1.10/hu_lib.o
LOAD sh2doom-1.10/hu_stuff.o
LOAD sh2doom-1.10/i_main.o
LOAD sh2doom-1.10/i_net.o
LOAD sh2doom-1.10/i_sound.o
LOAD sh2doom-1.10/i_system.o
LOAD sh2doom-1.10/i_video.o
LOAD sh2doom-1.10/info.o
LOAD sh2doom-1.10/m_bbox.o
LOAD sh2doom-1.10/m_cheat.o
LOAD sh2doom-1.10/m_fixed.o
LOAD sh2doom-1.10/m_menu.o
LOAD sh2doom-1.10/m_misc.o
LOAD sh2doom-1.10/m_random.o
LOAD sh2doom-1.10/m_swap.o
LOAD sh2doom-1.10/p_ceilng.o
LOAD sh2doom-1.10/p_doors.o
LOAD sh2doom-1.10/p_enemy.o
LOAD sh2doom-1.10/p_floor.o
LOAD sh2doom-1.10/p_inter.o
LOAD sh2doom-1.10/p_lights.o
LOAD sh2doom-1.10/p_map.o
LOAD sh2doom-1.10/p_maputl.o
LOAD sh2doom-1.10/p_mobj.o
LOAD sh2doom-1.10/p_plats.o
LOAD sh2doom-1.10/p_pspr.o
LOAD sh2doom-1.10/p_saveg.o
LOAD sh2doom-1.10/p_setup.o
LOAD sh2doom-1.10/p_sight.o
LOAD sh2doom-1.10/p_spec.o
LOAD sh2doom-1.10/p_switch.o
LOAD sh2doom-1.10/p_telept.o
LOAD sh2doom-1.10/p_tick.o
LOAD sh2doom-1.10/p_user.o
LOAD sh2doom-1.10/r_bsp.o
LOAD sh2doom-1.10/r_data.o
LOAD sh2doom-1.10/r_draw.o
LOAD sh2doom-1.10/r_main.o
LOAD sh2doom-1.10/r_plane.o
LOAD sh2doom-1.10/r_segs.o
LOAD sh2doom-1.10/r_sky.o
LOAD sh2doom-1.10/r_things.o
LOAD sh2doom-1.10/s_sound.o
LOAD sh2doom-1.10/sounds.o
LOAD sh2doom-1.10/st_lib.o
LOAD sh2doom-1.10/st_stuff.o
LOAD sh2doom-1.10/tables.o
LOAD sh2doom-1.10/v_video.o
LOAD sh2doom-1.10/w_wad.o
LOAD sh2doom-1.10/wi_stuff.o
LOAD sh2doom-1.10/z_zone.o
                0x0000000006004000                __master_stack = 0x6004000
                0x0000000006001000                __slave_stack = 0x6001000
LOAD d:/projects/saturn/yaul/opt/x-tools/sh2eb-elf/bin/../lib/gcc/sh2eb-elf/8.3.0\libgcc.a
LOAD d:/projects/saturn/yaul/opt/x-tools/sh2eb-elf/bin/../lib/gcc/sh2eb-elf/8.3.0\libgcc-Os-4-200.a
LOAD d:/projects/saturn/yaul/opt/x-tools/sh2eb-elf/bin/../lib/gcc/sh2eb-elf/8.3.0/../../../../sh2eb-elf/lib\libyaul.a
LOAD d:/projects/saturn/yaul/opt/x-tools/sh2eb-elf/bin/../lib/gcc/sh2eb-elf/8.3.0\libgcc.a
LOAD d:/projects/saturn/yaul/opt/x-tools/sh2eb-elf/bin/../lib/gcc/sh2eb-elf/8.3.0\libgcc.a
LOAD d:/projects/saturn/yaul/opt/x-tools/sh2eb-elf/bin/../lib/gcc/sh2eb-elf/8.3.0\libgcc-Os-4-200.a
OUTPUT(doom_r.elf elf32-sh)

.comment        0x0000000000000000       0x2c
 .comment       0x0000000000000000       0x2c d:/projects/saturn/yaul/opt/x-tools/sh2eb-elf/bin/../lib/gcc/sh2eb-elf/8.3.0/../../../../sh2eb-elf/lib/init.o
                                         0x2d (size before relaxing)
 .comment       0x000000000000002c       0x2d d:/projects/saturn/yaul/opt/x-tools/sh2eb-elf/bin/../lib/gcc/sh2eb-elf/8.3.0/../../../../sh2eb-elf/lib/c++-support.o
 .comment       0x000000000000002c       0x2d sh2doom-1.10/am_map.o
 .comment       0x000000000000002c       0x2d sh2doom-1.10/d_items.o
 .comment       0x000000000000002c       0x2d sh2doom-1.10/d_main.o
 .comment       0x000000000000002c       0x2d sh2doom-1.10/d_net.o
 .comment       0x000000000000002c       0x2d sh2doom-1.10/doomdef.o
 .comment       0x000000000000002c       0x2d sh2doom-1.10/doomstat.o
 .comment       0x000000000000002c       0x2d sh2doom-1.10/dstrings.o
 .comment       0x000000000000002c       0x2d sh2doom-1.10/f_finale.o
 .comment       0x000000000000002c       0x2d sh2doom-1.10/f_wipe.o
 .comment       0x000000000000002c       0x2d sh2doom-1.10/g_game.o
 .comment       0x000000000000002c       0x2d sh2doom-1.10/hu_lib.o
 .comment       0x000000000000002c       0x2d sh2doom-1.10/hu_stuff.o
 .comment       0x000000000000002c       0x2d sh2doom-1.10/i_main.o
 .comment       0x000000000000002c       0x2d sh2doom-1.10/i_net.o
 .comment       0x000000000000002c       0x2d sh2doom-1.10/i_sound.o
 .comment       0x000000000000002c       0x2d sh2doom-1.10/i_system.o
 .comment       0x000000000000002c       0x2d sh2doom-1.10/i_video.o
 .comment       0x000000000000002c       0x2d sh2doom-1.10/info.o
 .comment       0x000000000000002c       0x2d sh2doom-1.10/m_bbox.o
 .comment       0x000000000000002c       0x2d sh2doom-1.10/m_cheat.o
 .comment       0x000000000000002c       0x2d sh2doom-1.10/m_fixed.o
 .comment       0x000000000000002c       0x2d sh2doom-1.10/m_menu.o
 .comment       0x000000000000002c       0x2d sh2doom-1.10/m_misc.o
 .comment       0x000000000000002c       0x2d sh2doom-1.10/m_random.o
 .comment       0x000000000000002c       0x2d sh2doom-1.10/m_swap.o
 .comment       0x000000000000002c       0x2d sh2doom-1.10/p_ceilng.o
 .comment       0x000000000000002c       0x2d sh2doom-1.10/p_doors.o
 .comment       0x000000000000002c       0x2d sh2doom-1.10/p_enemy.o
 .comment       0x000000000000002c       0x2d sh2doom-1.10/p_floor.o
 .comment       0x000000000000002c       0x2d sh2doom-1.10/p_inter.o
 .comment       0x000000000000002c       0x2d sh2doom-1.10/p_lights.o
 .comment       0x000000000000002c       0x2d sh2doom-1.10/p_map.o
 .comment       0x000000000000002c       0x2d sh2doom-1.10/p_maputl.o
 .comment       0x000000000000002c       0x2d sh2doom-1.10/p_mobj.o
 .comment       0x000000000000002c       0x2d sh2doom-1.10/p_plats.o
 .comment       0x000000000000002c       0x2d sh2doom-1.10/p_pspr.o
 .comment       0x000000000000002c       0x2d sh2doom-1.10/p_saveg.o
 .comment       0x000000000000002c       0x2d sh2doom-1.10/p_setup.o
 .comment       0x000000000000002c       0x2d sh2doom-1.10/p_sight.o
 .comment       0x000000000000002c       0x2d sh2doom-1.10/p_spec.o
 .comment       0x000000000000002c       0x2d sh2doom-1.10/p_switch.o
 .comment       0x000000000000002c       0x2d sh2doom-1.10/p_telept.o
 .comment       0x000000000000002c       0x2d sh2doom-1.10/p_tick.o
 .comment       0x000000000000002c       0x2d sh2doom-1.10/p_user.o
 .comment       0x000000000000002c       0x2d sh2doom-1.10/r_bsp.o
 .comment       0x000000000000002c       0x2d sh2doom-1.10/r_data.o
 .comment       0x000000000000002c       0x2d sh2doom-1.10/r_draw.o
 .comment       0x000000000000002c       0x2d sh2doom-1.10/r_main.o
 .comment       0x000000000000002c       0x2d sh2doom-1.10/r_plane.o
 .comment       0x000000000000002c       0x2d sh2doom-1.10/r_segs.o
 .comment       0x000000000000002c       0x2d sh2doom-1.10/r_sky.o
 .comment       0x000000000000002c       0x2d sh2doom-1.10/r_things.o
 .comment       0x000000000000002c       0x2d sh2doom-1.10/s_sound.o
 .comment       0x000000000000002c       0x2d sh2doom-1.10/sounds.o
 .comment       0x000000000000002c       0x2d sh2doom-1.10/st_lib.o
 .comment       0x000000000000002c       0x2d sh2doom-1.10/st_stuff.o
 .comment       0x000000000000002c       0x2d sh2doom-1.10/tables.o
 .comment       0x000000000000002c       0x2d sh2doom-1.10/v_video.o
 .comment       0x000000000000002c       0x2d sh2doom-1.10/w_wad.o
 .comment       0x000000000000002c       0x2d sh2doom-1.10/wi_stuff.o
 .comment       0x000000000000002c       0x2d sh2doom-1.10/z_zone.o
 .comment       0x000000000000002c       0x2d d:/projects/saturn/yaul/opt/x-tools/sh2eb-elf/bin/../lib/gcc/sh2eb-elf/8.3.0\libgcc.a(_mul_df.o)
 .comment       0x000000000000002c       0x2d d:/projects/saturn/yaul/opt/x-tools/sh2eb-elf/bin/../lib/gcc/sh2eb-elf/8.3.0\libgcc.a(_div_df.o)
 .comment       0x000000000000002c       0x2d d:/projects/saturn/yaul/opt/x-tools/sh2eb-elf/bin/../lib/gcc/sh2eb-elf/8.3.0\libgcc.a(_ge_df.o)
 .comment       0x000000000000002c       0x2d d:/projects/saturn/yaul/opt/x-tools/sh2eb-elf/bin/../lib/gcc/sh2eb-elf/8.3.0\libgcc.a(_lt_df.o)
 .comment       0x000000000000002c       0x2d d:/projects/saturn/yaul/opt/x-tools/sh2eb-elf/bin/../lib/gcc/sh2eb-elf/8.3.0\libgcc.a(_si_to_df.o)
 .comment       0x000000000000002c       0x2d d:/projects/saturn/yaul/opt/x-tools/sh2eb-elf/bin/../lib/gcc/sh2eb-elf/8.3.0\libgcc.a(_df_to_si.o)
 .comment       0x000000000000002c       0x2d d:/projects/saturn/yaul/opt/x-tools/sh2eb-elf/bin/../lib/gcc/sh2eb-elf/8.3.0\libgcc.a(_thenan_df.o)
 .comment       0x000000000000002c       0x2d d:/projects/saturn/yaul/opt/x-tools/sh2eb-elf/bin/../lib/gcc/sh2eb-elf/8.3.0\libgcc.a(_lshrdi3.o)
 .comment       0x000000000000002c       0x2d d:/projects/saturn/yaul/opt/x-tools/sh2eb-elf/bin/../lib/gcc/sh2eb-elf/8.3.0\libgcc.a(_ashldi3.o)
 .comment       0x000000000000002c       0x2d d:/projects/saturn/yaul/opt/x-tools/sh2eb-elf/bin/../lib/gcc/sh2eb-elf/8.3.0\libgcc.a(_clzsi2.o)
 .comment       0x000000000000002c       0x2d d:/projects/saturn/yaul/opt/x-tools/sh2eb-elf/bin/../lib/gcc/sh2eb-elf/8.3.0\libgcc.a(_pack_df.o)
 .comment       0x000000000000002c       0x2d d:/projects/saturn/yaul/opt/x-tools/sh2eb-elf/bin/../lib/gcc/sh2eb-elf/8.3.0\libgcc.a(_unpack_df.o)
 .comment       0x000000000000002c       0x2d d:/projects/saturn/yaul/opt/x-tools/sh2eb-elf/bin/../lib/gcc/sh2eb-elf/8.3.0\libgcc.a(_fpcmp_parts_df.o)
 .comment       0x000000000000002c       0x2d d:/projects/saturn/yaul/opt/x-tools/sh2eb-elf/bin/../lib/gcc/sh2eb-elf/8.3.0\libgcc.a(_clz.o)
 .comment       0x000000000000002c       0x2d d:/projects/saturn/yaul/opt/x-tools/sh2eb-elf/bin/../lib/gcc/sh2eb-elf/8.3.0/../../../../sh2eb-elf/lib\libyaul.a(internal.o)
 .comment       0x000000000000002c       0x2d d:/projects/saturn/yaul/opt/x-tools/sh2eb-elf/bin/../lib/gcc/sh2eb-elf/8.3.0/../../../../sh2eb-elf/lib\libyaul.a(dbgio.o)
 .comment       0x000000000000002c       0x2d d:/projects/saturn/yaul/opt/x-tools/sh2eb-elf/bin/../lib/gcc/sh2eb-elf/8.3.0/../../../../sh2eb-elf/lib\libyaul.a(null.o)
 .comment       0x000000000000002c       0x2d d:/projects/saturn/yaul/opt/x-tools/sh2eb-elf/bin/../lib/gcc/sh2eb-elf/8.3.0/../../../../sh2eb-elf/lib\libyaul.a(vdp2.o)
 .comment       0x000000000000002c       0x2d d:/projects/saturn/yaul/opt/x-tools/sh2eb-elf/bin/../lib/gcc/sh2eb-elf/8.3.0/../../../../sh2eb-elf/lib\libyaul.a(usb-cart.o)
 .comment       0x000000000000002c       0x2d d:/projects/saturn/yaul/opt/x-tools/sh2eb-elf/bin/../lib/gcc/sh2eb-elf/8.3.0/../../../../sh2eb-elf/lib\libyaul.a(cons.o)
 .comment       0x000000000000002c       0x2d d:/projects/saturn/yaul/opt/x-tools/sh2eb-elf/bin/../lib/gcc/sh2eb-elf/8.3.0/../../../../sh2eb-elf/lib\libyaul.a(dma-queue.o)
 .comment       0x000000000000002c       0x2d d:/projects/saturn/yaul/opt/x-tools/sh2eb-elf/bin/../lib/gcc/sh2eb-elf/8.3.0/../../../../sh2eb-elf/lib\libyaul.a(tlsf.o)
 .comment       0x000000000000002c       0x2d d:/projects/saturn/yaul/opt/x-tools/sh2eb-elf/bin/../lib/gcc/sh2eb-elf/8.3.0/../../../../sh2eb-elf/lib\libyaul.a(ctype.o)
 .comment       0x000000000000002c       0x2d d:/projects/saturn/yaul/opt/x-tools/sh2eb-elf/bin/../lib/gcc/sh2eb-elf/8.3.0/../../../../sh2eb-elf/lib\libyaul.a(memcpy.o)
 .comment       0x000000000000002c       0x2d d:/projects/saturn/yaul/opt/x-tools/sh2eb-elf/bin/../lib/gcc/sh2eb-elf/8.3.0/../../../../sh2eb-elf/lib\libyaul.a(memset.o)
 .comment       0x000000000000002c       0x2d d:/projects/saturn/yaul/opt/x-tools/sh2eb-elf/bin/../lib/gcc/sh2eb-elf/8.3.0/../../../../sh2eb-elf/lib\libyaul.a(strcasestr.o)
 .comment       0x000000000000002c       0x2d d:/projects/saturn/yaul/opt/x-tools/sh2eb-elf/bin/../lib/gcc/sh2eb-elf/8.3.0/../../../../sh2eb-elf/lib\libyaul.a(strcat.o)
 .comment       0x000000000000002c       0x2d d:/projects/saturn/yaul/opt/x-tools/sh2eb-elf/bin/../lib/gcc/sh2eb-elf/8.3.0/../../../../sh2eb-elf/lib\libyaul.a(strcmp.o)
 .comment       0x000000000000002c       0x2d d:/projects/saturn/yaul/opt/x-tools/sh2eb-elf/bin/../lib/gcc/sh2eb-elf/8.3.0/../../../../sh2eb-elf/lib\libyaul.a(strcpy.o)
 .comment       0x000000000000002c       0x2d d:/projects/saturn/yaul/opt/x-tools/sh2eb-elf/bin/../lib/gcc/sh2eb-elf/8.3.0/../../../../sh2eb-elf/lib\libyaul.a(strlen.o)
 .comment       0x000000000000002c       0x2d d:/projects/saturn/yaul/opt/x-tools/sh2eb-elf/bin/../lib/gcc/sh2eb-elf/8.3.0/../../../../sh2eb-elf/lib\libyaul.a(strncasecmp.o)
 .comment       0x000000000000002c       0x2d d:/projects/saturn/yaul/opt/x-tools/sh2eb-elf/bin/../lib/gcc/sh2eb-elf/8.3.0/../../../../sh2eb-elf/lib\libyaul.a(strncmp.o)
 .comment       0x000000000000002c       0x2d d:/projects/saturn/yaul/opt/x-tools/sh2eb-elf/bin/../lib/gcc/sh2eb-elf/8.3.0/../../../../sh2eb-elf/lib\libyaul.a(strncpy.o)
 .comment       0x000000000000002c       0x2d d:/projects/saturn/yaul/opt/x-tools/sh2eb-elf/bin/../lib/gcc/sh2eb-elf/8.3.0/../../../../sh2eb-elf/lib\libyaul.a(snprintf.o)
 .comment       0x000000000000002c       0x2d d:/projects/saturn/yaul/opt/x-tools/sh2eb-elf/bin/../lib/gcc/sh2eb-elf/8.3.0/../../../../sh2eb-elf/lib\libyaul.a(abort.o)
 .comment       0x000000000000002c       0x2d d:/projects/saturn/yaul/opt/x-tools/sh2eb-elf/bin/../lib/gcc/sh2eb-elf/8.3.0/../../../../sh2eb-elf/lib\libyaul.a(abs.o)
 .comment       0x000000000000002c       0x2d d:/projects/saturn/yaul/opt/x-tools/sh2eb-elf/bin/../lib/gcc/sh2eb-elf/8.3.0/../../../../sh2eb-elf/lib\libyaul.a(assert.o)
 .comment       0x000000000000002c       0x2d d:/projects/saturn/yaul/opt/x-tools/sh2eb-elf/bin/../lib/gcc/sh2eb-elf/8.3.0/../../../../sh2eb-elf/lib\libyaul.a(free.o)
 .comment       0x000000000000002c       0x2d d:/projects/saturn/yaul/opt/x-tools/sh2eb-elf/bin/../lib/gcc/sh2eb-elf/8.3.0/../../../../sh2eb-elf/lib\libyaul.a(malloc.o)
 .comment       0x000000000000002c       0x2d d:/projects/saturn/yaul/opt/x-tools/sh2eb-elf/bin/../lib/gcc/sh2eb-elf/8.3.0/../../../../sh2eb-elf/lib\libyaul.a(dram-cart.o)
 .comment       0x000000000000002c       0x2d d:/projects/saturn/yaul/opt/x-tools/sh2eb-elf/bin/../lib/gcc/sh2eb-elf/8.3.0/../../../../sh2eb-elf/lib\libyaul.a(vdp_init.o)
 .comment       0x000000000000002c       0x2d d:/projects/saturn/yaul/opt/x-tools/sh2eb-elf/bin/../lib/gcc/sh2eb-elf/8.3.0/../../../../sh2eb-elf/lib\libyaul.a(vdp_sync.o)
 .comment       0x000000000000002c       0x2d d:/projects/saturn/yaul/opt/x-tools/sh2eb-elf/bin/../lib/gcc/sh2eb-elf/8.3.0/../../../../sh2eb-elf/lib\libyaul.a(vdp-internal.o)
 .comment       0x000000000000002c       0x2d d:/projects/saturn/yaul/opt/x-tools/sh2eb-elf/bin/../lib/gcc/sh2eb-elf/8.3.0/../../../../sh2eb-elf/lib\libyaul.a(vdp1_env.o)
 .comment       0x000000000000002c       0x2d d:/projects/saturn/yaul/opt/x-tools/sh2eb-elf/bin/../lib/gcc/sh2eb-elf/8.3.0/../../../../sh2eb-elf/lib\libyaul.a(vdp1_vram.o)
 .comment       0x000000000000002c       0x2d d:/projects/saturn/yaul/opt/x-tools/sh2eb-elf/bin/../lib/gcc/sh2eb-elf/8.3.0/../../../../sh2eb-elf/lib\libyaul.a(vdp2_cram.o)
 .comment       0x000000000000002c       0x2d d:/projects/saturn/yaul/opt/x-tools/sh2eb-elf/bin/../lib/gcc/sh2eb-elf/8.3.0/../../../../sh2eb-elf/lib\libyaul.a(vdp2_scrn.o)
 .comment       0x000000000000002c       0x2d d:/projects/saturn/yaul/opt/x-tools/sh2eb-elf/bin/../lib/gcc/sh2eb-elf/8.3.0/../../../../sh2eb-elf/lib\libyaul.a(vdp2_scrn_back_screen.o)
 .comment       0x000000000000002c       0x2d d:/projects/saturn/yaul/opt/x-tools/sh2eb-elf/bin/../lib/gcc/sh2eb-elf/8.3.0/../../../../sh2eb-elf/lib\libyaul.a(vdp2_scrn_display.o)
 .comment       0x000000000000002c       0x2d d:/projects/saturn/yaul/opt/x-tools/sh2eb-elf/bin/../lib/gcc/sh2eb-elf/8.3.0/../../../../sh2eb-elf/lib\libyaul.a(vdp2_scrn_priority.o)
 .comment       0x000000000000002c       0x2d d:/projects/saturn/yaul/opt/x-tools/sh2eb-elf/bin/../lib/gcc/sh2eb-elf/8.3.0/../../../../sh2eb-elf/lib\libyaul.a(vdp2_scrn_reduction.o)
 .comment       0x000000000000002c       0x2d d:/projects/saturn/yaul/opt/x-tools/sh2eb-elf/bin/../lib/gcc/sh2eb-elf/8.3.0/../../../../sh2eb-elf/lib\libyaul.a(vdp2_scrn_scroll.o)
 .comment       0x000000000000002c       0x2d d:/projects/saturn/yaul/opt/x-tools/sh2eb-elf/bin/../lib/gcc/sh2eb-elf/8.3.0/../../../../sh2eb-elf/lib\libyaul.a(vdp2_tvmd.o)
 .comment       0x000000000000002c       0x2d d:/projects/saturn/yaul/opt/x-tools/sh2eb-elf/bin/../lib/gcc/sh2eb-elf/8.3.0/../../../../sh2eb-elf/lib\libyaul.a(vdp2_vram.o)
 .comment       0x000000000000002c       0x2d d:/projects/saturn/yaul/opt/x-tools/sh2eb-elf/bin/../lib/gcc/sh2eb-elf/8.3.0/../../../../sh2eb-elf/lib\libyaul.a(cpu_cache.o)
 .comment       0x000000000000002c       0x2d d:/projects/saturn/yaul/opt/x-tools/sh2eb-elf/bin/../lib/gcc/sh2eb-elf/8.3.0/../../../../sh2eb-elf/lib\libyaul.a(cpu_dmac.o)
 .comment       0x000000000000002c       0x2d d:/projects/saturn/yaul/opt/x-tools/sh2eb-elf/bin/../lib/gcc/sh2eb-elf/8.3.0/../../../../sh2eb-elf/lib\libyaul.a(cpu_dual.o)
 .comment       0x000000000000002c       0x2d d:/projects/saturn/yaul/opt/x-tools/sh2eb-elf/bin/../lib/gcc/sh2eb-elf/8.3.0/../../../../sh2eb-elf/lib\libyaul.a(cpu_frt.o)
 .comment       0x000000000000002c       0x2d d:/projects/saturn/yaul/opt/x-tools/sh2eb-elf/bin/../lib/gcc/sh2eb-elf/8.3.0/../../../../sh2eb-elf/lib\libyaul.a(cpu_init.o)
 .comment       0x000000000000002c       0x2d d:/projects/saturn/yaul/opt/x-tools/sh2eb-elf/bin/../lib/gcc/sh2eb-elf/8.3.0/../../../../sh2eb-elf/lib\libyaul.a(cpu_wdt.o)
 .comment       0x000000000000002c       0x2d d:/projects/saturn/yaul/opt/x-tools/sh2eb-elf/bin/../lib/gcc/sh2eb-elf/8.3.0/../../../../sh2eb-elf/lib\libyaul.a(smpc_init.o)
 .comment       0x000000000000002c       0x2d d:/projects/saturn/yaul/opt/x-tools/sh2eb-elf/bin/../lib/gcc/sh2eb-elf/8.3.0/../../../../sh2eb-elf/lib\libyaul.a(smpc_peripheral_init.o)
 .comment       0x000000000000002c       0x2d d:/projects/saturn/yaul/opt/x-tools/sh2eb-elf/bin/../lib/gcc/sh2eb-elf/8.3.0/../../../../sh2eb-elf/lib\libyaul.a(scu_init.o)
 .comment       0x000000000000002c       0x2d d:/projects/saturn/yaul/opt/x-tools/sh2eb-elf/bin/../lib/gcc/sh2eb-elf/8.3.0/../../../../sh2eb-elf/lib\libyaul.a(scu_dma.o)
 .comment       0x000000000000002c       0x2d d:/projects/saturn/yaul/opt/x-tools/sh2eb-elf/bin/../lib/gcc/sh2eb-elf/8.3.0/../../../../sh2eb-elf/lib\libyaul.a(scu_dsp.o)
 .comment       0x000000000000002c       0x2d d:/projects/saturn/yaul/opt/x-tools/sh2eb-elf/bin/../lib/gcc/sh2eb-elf/8.3.0/../../../../sh2eb-elf/lib\libyaul.a(scu_timer.o)
 .comment       0x000000000000002c       0x2d d:/projects/saturn/yaul/opt/x-tools/sh2eb-elf/bin/../lib/gcc/sh2eb-elf/8.3.0/../../../../sh2eb-elf/lib\libyaul.a(internal.o)
 .comment       0x000000000000002c       0x2d d:/projects/saturn/yaul/opt/x-tools/sh2eb-elf/bin/../lib/gcc/sh2eb-elf/8.3.0/../../../../sh2eb-elf/lib\libyaul.a(internal_reset.o)
 .comment       0x000000000000002c       0x2d d:/projects/saturn/yaul/opt/x-tools/sh2eb-elf/bin/../lib/gcc/sh2eb-elf/8.3.0/../../../../sh2eb-elf/lib\libyaul.a(callback-list.o)
 .comment       0x000000000000002c       0x2d d:/projects/saturn/yaul/opt/x-tools/sh2eb-elf/bin/../lib/gcc/sh2eb-elf/8.3.0/../../../../sh2eb-elf/lib\libyaul.a(memb.o)
 .comment       0x000000000000002c       0x2d d:/projects/saturn/yaul/opt/x-tools/sh2eb-elf/bin/../lib/gcc/sh2eb-elf/8.3.0/../../../../sh2eb-elf/lib\libyaul.a(stpcpy.o)
 .comment       0x000000000000002c       0x2d d:/projects/saturn/yaul/opt/x-tools/sh2eb-elf/bin/../lib/gcc/sh2eb-elf/8.3.0/../../../../sh2eb-elf/lib\libyaul.a(stpncpy.o)
 .comment       0x000000000000002c       0x2d d:/projects/saturn/yaul/opt/x-tools/sh2eb-elf/bin/../lib/gcc/sh2eb-elf/8.3.0/../../../../sh2eb-elf/lib\libyaul.a(strnlen.o)
 .comment       0x000000000000002c       0x2d d:/projects/saturn/yaul/opt/x-tools/sh2eb-elf/bin/../lib/gcc/sh2eb-elf/8.3.0/../../../../sh2eb-elf/lib\libyaul.a(vdp2_sprite.o)
 .comment       0x000000000000002c       0x2d d:/projects/saturn/yaul/opt/x-tools/sh2eb-elf/bin/../lib/gcc/sh2eb-elf/8.3.0/../../../../sh2eb-elf/lib\libyaul.a(cpu_divu.o)
 .comment       0x000000000000002c       0x2d d:/projects/saturn/yaul/opt/x-tools/sh2eb-elf/bin/../lib/gcc/sh2eb-elf/8.3.0/../../../../sh2eb-elf/lib\libyaul.a(memchr.o)
 .comment       0x000000000000002c       0x2d d:/projects/saturn/yaul/opt/x-tools/sh2eb-elf/bin/../lib/gcc/sh2eb-elf/8.3.0\libgcc.a(_ffssi2.o)

.debug_info     0x0000000000000000     0x454f
 .debug_info    0x0000000000000000      0x6dc d:/projects/saturn/yaul/opt/x-tools/sh2eb-elf/bin/../lib/gcc/sh2eb-elf/8.3.0\libgcc.a(_mul_df.o)
 .debug_info    0x00000000000006dc      0x5e6 d:/projects/saturn/yaul/opt/x-tools/sh2eb-elf/bin/../lib/gcc/sh2eb-elf/8.3.0\libgcc.a(_div_df.o)
 .debug_info    0x0000000000000cc2      0x4f4 d:/projects/saturn/yaul/opt/x-tools/sh2eb-elf/bin/../lib/gcc/sh2eb-elf/8.3.0\libgcc.a(_ge_df.o)
 .debug_info    0x00000000000011b6      0x4f4 d:/projects/saturn/yaul/opt/x-tools/sh2eb-elf/bin/../lib/gcc/sh2eb-elf/8.3.0\libgcc.a(_lt_df.o)
 .debug_info    0x00000000000016aa      0x498 d:/projects/saturn/yaul/opt/x-tools/sh2eb-elf/bin/../lib/gcc/sh2eb-elf/8.3.0\libgcc.a(_si_to_df.o)
 .debug_info    0x0000000000001b42      0x4d7 d:/projects/saturn/yaul/opt/x-tools/sh2eb-elf/bin/../lib/gcc/sh2eb-elf/8.3.0\libgcc.a(_df_to_si.o)
 .debug_info    0x0000000000002019      0x391 d:/projects/saturn/yaul/opt/x-tools/sh2eb-elf/bin/../lib/gcc/sh2eb-elf/8.3.0\libgcc.a(_thenan_df.o)
 .debug_info    0x00000000000023aa      0x482 d:/projects/saturn/yaul/opt/x-tools/sh2eb-elf/bin/../lib/gcc/sh2eb-elf/8.3.0\libgcc.a(_lshrdi3.o)
 .debug_info    0x000000000000282c      0x482 d:/projects/saturn/yaul/opt/x-tools/sh2eb-elf/bin/../lib/gcc/sh2eb-elf/8.3.0\libgcc.a(_ashldi3.o)
 .debug_info    0x0000000000002cae      0x3da d:/projects/saturn/yaul/opt/x-tools/sh2eb-elf/bin/../lib/gcc/sh2eb-elf/8.3.0\libgcc.a(_clzsi2.o)
 .debug_info    0x0000000000003088      0x4de d:/projects/saturn/yaul/opt/x-tools/sh2eb-elf/bin/../lib/gcc/sh2eb-elf/8.3.0\libgcc.a(_pack_df.o)
 .debug_info    0x0000000000003566      0x45d d:/projects/saturn/yaul/opt/x-tools/sh2eb-elf/bin/../lib/gcc/sh2eb-elf/8.3.0\libgcc.a(_unpack_df.o)
 .debug_info    0x00000000000039c3      0x425 d:/projects/saturn/yaul/opt/x-tools/sh2eb-elf/bin/../lib/gcc/sh2eb-elf/8.3.0\libgcc.a(_fpcmp_parts_df.o)
 .debug_info    0x0000000000003de8      0x371 d:/projects/saturn/yaul/opt/x-tools/sh2eb-elf/bin/../lib/gcc/sh2eb-elf/8.3.0\libgcc.a(_clz.o)
 .debug_info    0x0000000000004159      0x3f6 d:/projects/saturn/yaul/opt/x-tools/sh2eb-elf/bin/../lib/gcc/sh2eb-elf/8.3.0\libgcc.a(_ffssi2.o)

.debug_abbrev   0x0000000000000000     0x182e
 .debug_abbrev  0x0000000000000000      0x27a d:/projects/saturn/yaul/opt/x-tools/sh2eb-elf/bin/../lib/gcc/sh2eb-elf/8.3.0\libgcc.a(_mul_df.o)
 .debug_abbrev  0x000000000000027a      0x25c d:/projects/saturn/yaul/opt/x-tools/sh2eb-elf/bin/../lib/gcc/sh2eb-elf/8.3.0\libgcc.a(_div_df.o)
 .debug_abbrev  0x00000000000004d6      0x1b7 d:/projects/saturn/yaul/opt/x-tools/sh2eb-elf/bin/../lib/gcc/sh2eb-elf/8.3.0\libgcc.a(_ge_df.o)
 .debug_abbrev  0x000000000000068d      0x1b7 d:/projects/saturn/yaul/opt/x-tools/sh2eb-elf/bin/../lib/gcc/sh2eb-elf/8.3.0\libgcc.a(_lt_df.o)
 .debug_abbrev  0x0000000000000844      0x1ff d:/projects/saturn/yaul/opt/x-tools/sh2eb-elf/bin/../lib/gcc/sh2eb-elf/8.3.0\libgcc.a(_si_to_df.o)
 .debug_abbrev  0x0000000000000a43      0x1c6 d:/projects/saturn/yaul/opt/x-tools/sh2eb-elf/bin/../lib/gcc/sh2eb-elf/8.3.0\libgcc.a(_df_to_si.o)
 .debug_abbrev  0x0000000000000c09      0x11c d:/projects/saturn/yaul/opt/x-tools/sh2eb-elf/bin/../lib/gcc/sh2eb-elf/8.3.0\libgcc.a(_thenan_df.o)
 .debug_abbrev  0x0000000000000d25      0x18b d:/projects/saturn/yaul/opt/x-tools/sh2eb-elf/bin/../lib/gcc/sh2eb-elf/8.3.0\libgcc.a(_lshrdi3.o)
 .debug_abbrev  0x0000000000000eb0      0x18b d:/projects/saturn/yaul/opt/x-tools/sh2eb-elf/bin/../lib/gcc/sh2eb-elf/8.3.0\libgcc.a(_ashldi3.o)
 .debug_abbrev  0x000000000000103b      0x129 d:/projects/saturn/yaul/opt/x-tools/sh2eb-elf/bin/../lib/gcc/sh2eb-elf/8.3.0\libgcc.a(_clzsi2.o)
 .debug_abbrev  0x0000000000001164      0x1d4 d:/projects/saturn/yaul/opt/x-tools/sh2eb-elf/bin/../lib/gcc/sh2eb-elf/8.3.0\libgcc.a(_pack_df.o)
 .debug_abbrev  0x0000000000001338      0x18b d:/projects/saturn/yaul/opt/x-tools/sh2eb-elf/bin/../lib/gcc/sh2eb-elf/8.3.0\libgcc.a(_unpack_df.o)
 .debug_abbrev  0x00000000000014c3      0x173 d:/projects/saturn/yaul/opt/x-tools/sh2eb-elf/bin/../lib/gcc/sh2eb-elf/8.3.0\libgcc.a(_fpcmp_parts_df.o)
 .debug_abbrev  0x0000000000001636       0xcf d:/projects/saturn/yaul/opt/x-tools/sh2eb-elf/bin/../lib/gcc/sh2eb-elf/8.3.0\libgcc.a(_clz.o)
 .debug_abbrev  0x0000000000001705      0x129 d:/projects/saturn/yaul/opt/x-tools/sh2eb-elf/bin/../lib/gcc/sh2eb-elf/8.3.0\libgcc.a(_ffssi2.o)

.debug_loc      0x0000000000000000      0xb9e
 .debug_loc     0x0000000000000000      0x39b d:/projects/saturn/yaul/opt/x-tools/sh2eb-elf/bin/../lib/gcc/sh2eb-elf/8.3.0\libgcc.a(_mul_df.o)
 .debug_loc     0x000000000000039b      0x1a2 d:/projects/saturn/yaul/opt/x-tools/sh2eb-elf/bin/../lib/gcc/sh2eb-elf/8.3.0\libgcc.a(_div_df.o)
 .debug_loc     0x000000000000053d       0x50 d:/projects/saturn/yaul/opt/x-tools/sh2eb-elf/bin/../lib/gcc/sh2eb-elf/8.3.0\libgcc.a(_ge_df.o)
 .debug_loc     0x000000000000058d       0x50 d:/projects/saturn/yaul/opt/x-tools/sh2eb-elf/bin/../lib/gcc/sh2eb-elf/8.3.0\libgcc.a(_lt_df.o)
 .debug_loc     0x00000000000005dd       0x4d d:/projects/saturn/yaul/opt/x-tools/sh2eb-elf/bin/../lib/gcc/sh2eb-elf/8.3.0\libgcc.a(_si_to_df.o)
 .debug_loc     0x000000000000062a       0x49 d:/projects/saturn/yaul/opt/x-tools/sh2eb-elf/bin/../lib/gcc/sh2eb-elf/8.3.0\libgcc.a(_df_to_si.o)
 .debug_loc     0x0000000000000673       0xd5 d:/projects/saturn/yaul/opt/x-tools/sh2eb-elf/bin/../lib/gcc/sh2eb-elf/8.3.0\libgcc.a(_lshrdi3.o)
 .debug_loc     0x0000000000000748       0xb5 d:/projects/saturn/yaul/opt/x-tools/sh2eb-elf/bin/../lib/gcc/sh2eb-elf/8.3.0\libgcc.a(_ashldi3.o)
 .debug_loc     0x00000000000007fd       0x23 d:/projects/saturn/yaul/opt/x-tools/sh2eb-elf/bin/../lib/gcc/sh2eb-elf/8.3.0\libgcc.a(_clzsi2.o)
 .debug_loc     0x0000000000000820      0x1c8 d:/projects/saturn/yaul/opt/x-tools/sh2eb-elf/bin/../lib/gcc/sh2eb-elf/8.3.0\libgcc.a(_pack_df.o)
 .debug_loc     0x00000000000009e8      0x119 d:/projects/saturn/yaul/opt/x-tools/sh2eb-elf/bin/../lib/gcc/sh2eb-elf/8.3.0\libgcc.a(_unpack_df.o)
 .debug_loc     0x0000000000000b01       0x9d d:/projects/saturn/yaul/opt/x-tools/sh2eb-elf/bin/../lib/gcc/sh2eb-elf/8.3.0\libgcc.a(_ffssi2.o)

.debug_aranges  0x0000000000000000      0x1d0
 .debug_aranges
                0x0000000000000000       0x20 d:/projects/saturn/yaul/opt/x-tools/sh2eb-elf/bin/../lib/gcc/sh2eb-elf/8.3.0\libgcc.a(_mul_df.o)
 .debug_aranges
                0x0000000000000020       0x20 d:/projects/saturn/yaul/opt/x-tools/sh2eb-elf/bin/../lib/gcc/sh2eb-elf/8.3.0\libgcc.a(_div_df.o)
 .debug_aranges
                0x0000000000000040       0x20 d:/projects/saturn/yaul/opt/x-tools/sh2eb-elf/bin/../lib/gcc/sh2eb-elf/8.3.0\libgcc.a(_ge_df.o)
 .debug_aranges
                0x0000000000000060       0x20 d:/projects/saturn/yaul/opt/x-tools/sh2eb-elf/bin/../lib/gcc/sh2eb-elf/8.3.0\libgcc.a(_lt_df.o)
 .debug_aranges
                0x0000000000000080       0x20 d:/projects/saturn/yaul/opt/x-tools/sh2eb-elf/bin/../lib/gcc/sh2eb-elf/8.3.0\libgcc.a(_si_to_df.o)
 .debug_aranges
                0x00000000000000a0       0x20 d:/projects/saturn/yaul/opt/x-tools/sh2eb-elf/bin/../lib/gcc/sh2eb-elf/8.3.0\libgcc.a(_df_to_si.o)
 .debug_aranges
                0x00000000000000c0       0x18 d:/projects/saturn/yaul/opt/x-tools/sh2eb-elf/bin/../lib/gcc/sh2eb-elf/8.3.0\libgcc.a(_thenan_df.o)
 .debug_aranges
                0x00000000000000d8       0x20 d:/projects/saturn/yaul/opt/x-tools/sh2eb-elf/bin/../lib/gcc/sh2eb-elf/8.3.0\libgcc.a(_lshrdi3.o)
 .debug_aranges
                0x00000000000000f8       0x20 d:/projects/saturn/yaul/opt/x-tools/sh2eb-elf/bin/../lib/gcc/sh2eb-elf/8.3.0\libgcc.a(_ashldi3.o)
 .debug_aranges
                0x0000000000000118       0x20 d:/projects/saturn/yaul/opt/x-tools/sh2eb-elf/bin/../lib/gcc/sh2eb-elf/8.3.0\libgcc.a(_clzsi2.o)
 .debug_aranges
                0x0000000000000138       0x20 d:/projects/saturn/yaul/opt/x-tools/sh2eb-elf/bin/../lib/gcc/sh2eb-elf/8.3.0\libgcc.a(_pack_df.o)
 .debug_aranges
                0x0000000000000158       0x20 d:/projects/saturn/yaul/opt/x-tools/sh2eb-elf/bin/../lib/gcc/sh2eb-elf/8.3.0\libgcc.a(_unpack_df.o)
 .debug_aranges
                0x0000000000000178       0x20 d:/projects/saturn/yaul/opt/x-tools/sh2eb-elf/bin/../lib/gcc/sh2eb-elf/8.3.0\libgcc.a(_fpcmp_parts_df.o)
 .debug_aranges
                0x0000000000000198       0x18 d:/projects/saturn/yaul/opt/x-tools/sh2eb-elf/bin/../lib/gcc/sh2eb-elf/8.3.0\libgcc.a(_clz.o)
 .debug_aranges
                0x00000000000001b0       0x20 d:/projects/saturn/yaul/opt/x-tools/sh2eb-elf/bin/../lib/gcc/sh2eb-elf/8.3.0\libgcc.a(_ffssi2.o)

.debug_ranges   0x0000000000000000      0x1a0
 .debug_ranges  0x0000000000000000       0xc0 d:/projects/saturn/yaul/opt/x-tools/sh2eb-elf/bin/../lib/gcc/sh2eb-elf/8.3.0\libgcc.a(_mul_df.o)
 .debug_ranges  0x00000000000000c0       0x58 d:/projects/saturn/yaul/opt/x-tools/sh2eb-elf/bin/../lib/gcc/sh2eb-elf/8.3.0\libgcc.a(_div_df.o)
 .debug_ranges  0x0000000000000118       0x18 d:/projects/saturn/yaul/opt/x-tools/sh2eb-elf/bin/../lib/gcc/sh2eb-elf/8.3.0\libgcc.a(_si_to_df.o)
 .debug_ranges  0x0000000000000130       0x20 d:/projects/saturn/yaul/opt/x-tools/sh2eb-elf/bin/../lib/gcc/sh2eb-elf/8.3.0\libgcc.a(_clzsi2.o)
 .debug_ranges  0x0000000000000150       0x30 d:/projects/saturn/yaul/opt/x-tools/sh2eb-elf/bin/../lib/gcc/sh2eb-elf/8.3.0\libgcc.a(_pack_df.o)
 .debug_ranges  0x0000000000000180       0x20 d:/projects/saturn/yaul/opt/x-tools/sh2eb-elf/bin/../lib/gcc/sh2eb-elf/8.3.0\libgcc.a(_ffssi2.o)

.debug_line     0x0000000000000000     0x2061
 .debug_line    0x0000000000000000      0x3aa d:/projects/saturn/yaul/opt/x-tools/sh2eb-elf/bin/../lib/gcc/sh2eb-elf/8.3.0\libgcc.a(_mul_df.o)
 .debug_line    0x00000000000003aa      0x2ed d:/projects/saturn/yaul/opt/x-tools/sh2eb-elf/bin/../lib/gcc/sh2eb-elf/8.3.0\libgcc.a(_div_df.o)
 .debug_line    0x0000000000000697      0x1a3 d:/projects/saturn/yaul/opt/x-tools/sh2eb-elf/bin/../lib/gcc/sh2eb-elf/8.3.0\libgcc.a(_ge_df.o)
 .debug_line    0x000000000000083a      0x1a3 d:/projects/saturn/yaul/opt/x-tools/sh2eb-elf/bin/../lib/gcc/sh2eb-elf/8.3.0\libgcc.a(_lt_df.o)
 .debug_line    0x00000000000009dd      0x1d8 d:/projects/saturn/yaul/opt/x-tools/sh2eb-elf/bin/../lib/gcc/sh2eb-elf/8.3.0\libgcc.a(_si_to_df.o)
 .debug_line    0x0000000000000bb5      0x1d2 d:/projects/saturn/yaul/opt/x-tools/sh2eb-elf/bin/../lib/gcc/sh2eb-elf/8.3.0\libgcc.a(_df_to_si.o)
 .debug_line    0x0000000000000d87      0x13a d:/projects/saturn/yaul/opt/x-tools/sh2eb-elf/bin/../lib/gcc/sh2eb-elf/8.3.0\libgcc.a(_thenan_df.o)
 .debug_line    0x0000000000000ec1      0x22d d:/projects/saturn/yaul/opt/x-tools/sh2eb-elf/bin/../lib/gcc/sh2eb-elf/8.3.0\libgcc.a(_lshrdi3.o)
 .debug_line    0x00000000000010ee      0x230 d:/projects/saturn/yaul/opt/x-tools/sh2eb-elf/bin/../lib/gcc/sh2eb-elf/8.3.0\libgcc.a(_ashldi3.o)
 .debug_line    0x000000000000131e      0x1fb d:/projects/saturn/yaul/opt/x-tools/sh2eb-elf/bin/../lib/gcc/sh2eb-elf/8.3.0\libgcc.a(_clzsi2.o)
 .debug_line    0x0000000000001519      0x2cb d:/projects/saturn/yaul/opt/x-tools/sh2eb-elf/bin/../lib/gcc/sh2eb-elf/8.3.0\libgcc.a(_pack_df.o)
 .debug_line    0x00000000000017e4      0x22c d:/projects/saturn/yaul/opt/x-tools/sh2eb-elf/bin/../lib/gcc/sh2eb-elf/8.3.0\libgcc.a(_unpack_df.o)
 .debug_line    0x0000000000001a10      0x28e d:/projects/saturn/yaul/opt/x-tools/sh2eb-elf/bin/../lib/gcc/sh2eb-elf/8.3.0\libgcc.a(_fpcmp_parts_df.o)
 .debug_line    0x0000000000001c9e      0x1ba d:/projects/saturn/yaul/opt/x-tools/sh2eb-elf/bin/../lib/gcc/sh2eb-elf/8.3.0\libgcc.a(_clz.o)
 .debug_line    0x0000000000001e58      0x209 d:/projects/saturn/yaul/opt/x-tools/sh2eb-elf/bin/../lib/gcc/sh2eb-elf/8.3.0\libgcc.a(_ffssi2.o)

.debug_str      0x0000000000000000      0x7f7
 .debug_str     0x0000000000000000      0x608 d:/projects/saturn/yaul/opt/x-tools/sh2eb-elf/bin/../lib/gcc/sh2eb-elf/8.3.0\libgcc.a(_mul_df.o)
                                        0x660 (size before relaxing)
 .debug_str     0x0000000000000608       0x35 d:/projects/saturn/yaul/opt/x-tools/sh2eb-elf/bin/../lib/gcc/sh2eb-elf/8.3.0\libgcc.a(_div_df.o)
                                        0x650 (size before relaxing)
 .debug_str     0x000000000000063d       0x20 d:/projects/saturn/yaul/opt/x-tools/sh2eb-elf/bin/../lib/gcc/sh2eb-elf/8.3.0\libgcc.a(_ge_df.o)
                                        0x61d (size before relaxing)
 .debug_str     0x000000000000065d        0x8 d:/projects/saturn/yaul/opt/x-tools/sh2eb-elf/bin/../lib/gcc/sh2eb-elf/8.3.0\libgcc.a(_lt_df.o)
                                        0x61d (size before relaxing)
 .debug_str     0x0000000000000665       0x27 d:/projects/saturn/yaul/opt/x-tools/sh2eb-elf/bin/../lib/gcc/sh2eb-elf/8.3.0\libgcc.a(_si_to_df.o)
                                        0x5f8 (size before relaxing)
 .debug_str     0x000000000000068c        0xa d:/projects/saturn/yaul/opt/x-tools/sh2eb-elf/bin/../lib/gcc/sh2eb-elf/8.3.0\libgcc.a(_df_to_si.o)
                                        0x615 (size before relaxing)
 .debug_str     0x0000000000000696      0x5ab d:/projects/saturn/yaul/opt/x-tools/sh2eb-elf/bin/../lib/gcc/sh2eb-elf/8.3.0\libgcc.a(_thenan_df.o)
 .debug_str     0x0000000000000696      0x12c d:/projects/saturn/yaul/opt/x-tools/sh2eb-elf/bin/../lib/gcc/sh2eb-elf/8.3.0\libgcc.a(_lshrdi3.o)
                                        0x5ed (size before relaxing)
 .debug_str     0x00000000000007c2        0xa d:/projects/saturn/yaul/opt/x-tools/sh2eb-elf/bin/../lib/gcc/sh2eb-elf/8.3.0\libgcc.a(_ashldi3.o)
                                        0x5ed (size before relaxing)
 .debug_str     0x00000000000007cc        0x5 d:/projects/saturn/yaul/opt/x-tools/sh2eb-elf/bin/../lib/gcc/sh2eb-elf/8.3.0\libgcc.a(_clzsi2.o)
                                        0x5bb (size before relaxing)
 .debug_str     0x00000000000007d1        0x7 d:/projects/saturn/yaul/opt/x-tools/sh2eb-elf/bin/../lib/gcc/sh2eb-elf/8.3.0\libgcc.a(_pack_df.o)
                                        0x609 (size before relaxing)
 .debug_str     0x00000000000007d8      0x5eb d:/projects/saturn/yaul/opt/x-tools/sh2eb-elf/bin/../lib/gcc/sh2eb-elf/8.3.0\libgcc.a(_unpack_df.o)
 .debug_str     0x00000000000007d8      0x5ce d:/projects/saturn/yaul/opt/x-tools/sh2eb-elf/bin/../lib/gcc/sh2eb-elf/8.3.0\libgcc.a(_fpcmp_parts_df.o)
 .debug_str     0x00000000000007d8      0x59e d:/projects/saturn/yaul/opt/x-tools/sh2eb-elf/bin/../lib/gcc/sh2eb-elf/8.3.0\libgcc.a(_clz.o)
 .debug_str     0x00000000000007d8       0x1f d:/projects/saturn/yaul/opt/x-tools/sh2eb-elf/bin/../lib/gcc/sh2eb-elf/8.3.0\libgcc.a(_ffssi2.o)
                                        0x5ca (size before relaxing)

.debug_frame    0x0000000000000000      0x300
 .debug_frame   0x0000000000000000       0x70 d:/projects/saturn/yaul/opt/x-tools/sh2eb-elf/bin/../lib/gcc/sh2eb-elf/8.3.0\libgcc.a(_mul_df.o)
 .debug_frame   0x0000000000000070       0x4c d:/projects/saturn/yaul/opt/x-tools/sh2eb-elf/bin/../lib/gcc/sh2eb-elf/8.3.0\libgcc.a(_div_df.o)
 .debug_frame   0x00000000000000bc       0x38 d:/projects/saturn/yaul/opt/x-tools/sh2eb-elf/bin/../lib/gcc/sh2eb-elf/8.3.0\libgcc.a(_ge_df.o)
 .debug_frame   0x00000000000000f4       0x38 d:/projects/saturn/yaul/opt/x-tools/sh2eb-elf/bin/../lib/gcc/sh2eb-elf/8.3.0\libgcc.a(_lt_df.o)
 .debug_frame   0x000000000000012c       0x44 d:/projects/saturn/yaul/opt/x-tools/sh2eb-elf/bin/../lib/gcc/sh2eb-elf/8.3.0\libgcc.a(_si_to_df.o)
 .debug_frame   0x0000000000000170       0x3c d:/projects/saturn/yaul/opt/x-tools/sh2eb-elf/bin/../lib/gcc/sh2eb-elf/8.3.0\libgcc.a(_df_to_si.o)
 .debug_frame   0x00000000000001ac       0x2c d:/projects/saturn/yaul/opt/x-tools/sh2eb-elf/bin/../lib/gcc/sh2eb-elf/8.3.0\libgcc.a(_lshrdi3.o)
 .debug_frame   0x00000000000001d8       0x2c d:/projects/saturn/yaul/opt/x-tools/sh2eb-elf/bin/../lib/gcc/sh2eb-elf/8.3.0\libgcc.a(_ashldi3.o)
 .debug_frame   0x0000000000000204       0x2c d:/projects/saturn/yaul/opt/x-tools/sh2eb-elf/bin/../lib/gcc/sh2eb-elf/8.3.0\libgcc.a(_clzsi2.o)
 .debug_frame   0x0000000000000230       0x64 d:/projects/saturn/yaul/opt/x-tools/sh2eb-elf/bin/../lib/gcc/sh2eb-elf/8.3.0\libgcc.a(_pack_df.o)
 .debug_frame   0x0000000000000294       0x20 d:/projects/saturn/yaul/opt/x-tools/sh2eb-elf/bin/../lib/gcc/sh2eb-elf/8.3.0\libgcc.a(_unpack_df.o)
 .debug_frame   0x00000000000002b4       0x20 d:/projects/saturn/yaul/opt/x-tools/sh2eb-elf/bin/../lib/gcc/sh2eb-elf/8.3.0\libgcc.a(_fpcmp_parts_df.o)
 .debug_frame   0x00000000000002d4       0x2c d:/projects/saturn/yaul/opt/x-tools/sh2eb-elf/bin/../lib/gcc/sh2eb-elf/8.3.0\libgcc.a(_ffssi2.o)
